Certificate:
    Data:
        Version: 3 (0x2)
        Serial Number: 268435681 (0x100000e1)
        Signature Algorithm: sha256WithRSAEncryption
        Issuer: C=DE, ST=Hessen, O=privacyidea, CN=CA001
        Validity
            Not Before: Aug 15 09:27:00 2019 GMT
            Not After : Aug 14 09:27:00 2020 GMT
        Subject: C=DE, ST=Hessen, O=privacyidea, CN=requester.localdomain
        Subject Public Key Info:
            Public Key Algorithm: rsaEncryption
                RSA Public-Key: (2048 bit)
                Modulus:
                    00:cd:be:14:4f:fa:ce:01:3f:42:22:1b:1d:9c:af:
                    dd:92:d2:7f:db:6c:b7:3e:39:43:43:6b:13:03:f1:
                    05:f4:07:74:bc:76:69:28:0b:af:19:8e:d7:fc:e3:
                    cd:c6:58:f2:ca:7f:08:6d:53:fc:07:02:44:24:c6:
                    b4:34:4c:8c:04:fe:33:0e:40:e2:20:ba:02:73:5a:
                    f7:f5:4f:63:6e:cc:c6:b6:df:54:1d:37:39:7d:51:
                    36:26:5f:bd:dc:3f:a8:8b:6b:a2:ae:b6:9d:d6:21:
                    e7:df:41:b8:7a:28:2a:68:48:ca:a8:2d:ed:e1:e9:
                    46:5e:5a:72:6d:b4:84:38:87:91:fd:94:11:0b:28:
                    84:c6:c2:2f:2a:fb:01:f9:36:7a:09:75:d1:33:88:
                    3c:73:41:5b:c8:bf:94:89:70:a1:f0:c0:b9:2e:50:
                    53:1e:b1:17:64:69:f4:2d:81:e0:a9:0d:0e:32:e9:
                    ba:55:8a:85:f1:1b:6f:49:79:b4:7f:88:c3:0d:3e:
                    54:88:9b:3d:1f:38:8c:04:f3:ee:6a:63:2b:f5:c6:
                    db:b4:83:aa:c4:78:41:3a:7d:4b:e1:c8:3e:71:ca:
                    1b:61:59:ea:c6:c4:ca:32:5e:c9:e9:bf:12:29:e6:
                    c6:c3:63:fe:a0:55:da:7a:f1:60:98:4d:26:ed:fa:
                    70:2d
                Exponent: 65537 (0x10001)
        X509v3 extensions:
            X509v3 Key Usage: 
                Digital Signature, Key Encipherment
            X509v3 Basic Constraints: 
                CA:FALSE
            Netscape Cert Type: 
                SSL Server
            Netscape Comment: 
                OpenSSL Generated Server Certificate
            X509v3 Subject Key Identifier: 
                53:3F:ED:5D:09:07:B3:65:7B:AB:45:C9:24:5B:09:77:80:0A:96:ED
            X509v3 Authority Key Identifier: 
                keyid:F4:A7:C0:CC:91:46:AF:64:F3:91:F2:27:F8:C8:B2:6F:8A:87:32:73
                DirName:/C=DE/ST=Hessen/O=privacyidea/CN=CA001
                serial:FB:C8:EB:AC:83:CD:12:07

            X509v3 Extended Key Usage: 
                TLS Web Server Authentication
    Signature Algorithm: sha256WithRSAEncryption
         09:09:89:07:ba:6b:18:fe:04:47:62:3d:85:14:44:94:8c:da:
         e5:91:1c:10:31:22:07:d7:59:b9:da:1f:8f:1a:fb:13:0b:4e:
         f2:15:d3:f3:a6:25:68:6d:ce:a4:12:ff:e2:c5:13:63:01:12:
         2a:c8:04:6d:46:7f:6d:37:4e:39:d9:be:26:c6:9c:41:83:36:
         8a:91:01:0f:1b:71:fa:64:71:f7:a1:96:8d:43:cf:2f:6e:0e:
         6b:63:55:f4:fb:d9:13:1e:cc:ae:d5:03:43:08:f0:99:46:62:
         ca:89:eb:74:dc:4c:da:55:c4:36:b3:98:71:b7:f2:c0:34:23:
         af:ba:60:c2:06:ac:dd:b3:6f:a2:14:18:54:0f:6c:40:84:a7:
         75:5c:1d:30:b9:f1:bd:2c:7f:8f:a7:f6:13:08:74:28:cc:4e:
         7a:2a:88:02:7b:d8:26:b2:cc:a2:b2:5c:6e:b6:2d:8f:2d:41:
         fd:00:79:a6:39:54:5f:3e:23:b6:29:5e:26:29:2d:cf:9a:5f:
         8b:ec:88:a4:e8:8f:96:45:48:24:f2:d8:b6:9e:be:24:ff:3a:
         e3:3c:d1:31:62:e2:86:f2:12:a9:8e:88:f1:93:65:83:e7:0e:
         15:23:4d:6c:e1:11:1f:6c:b1:6c:93:ca:34:13:d3:7a:56:a0:
         85:05:66:ee
-----BEGIN CERTIFICATE-----
MIIEJjCCAw6gAwIBAgIEEAAA4TANBgkqhkiG9w0BAQsFADBEMQswCQYDVQQGEwJE
RTEPMA0GA1UECAwGSGVzc2VuMRQwEgYDVQQKDAtwcml2YWN5aWRlYTEOMAwGA1UE
AwwFQ0EwMDEwHhcNMTkwODE1MDkyNzAwWhcNMjAwODE0MDkyNzAwWjBUMQswCQYD
VQQGEwJERTEPMA0GA1UECAwGSGVzc2VuMRQwEgYDVQQKDAtwcml2YWN5aWRlYTEe
MBwGA1UEAwwVcmVxdWVzdGVyLmxvY2FsZG9tYWluMIIBIjANBgkqhkiG9w0BAQEF
AAOCAQ8AMIIBCgKCAQEAzb4UT/rOAT9CIhsdnK/dktJ/22y3PjlDQ2sTA/EF9Ad0
vHZpKAuvGY7X/OPNxljyyn8IbVP8BwJEJMa0NEyMBP4zDkDiILoCc1r39U9jbszG
tt9UHTc5fVE2Jl+93D+oi2uirrad1iHn30G4eigqaEjKqC3t4elGXlpybbSEOIeR
/ZQRCyiExsIvKvsB+TZ6CXXRM4g8c0FbyL+UiXCh8MC5LlBTHrEXZGn0LYHgqQ0O
Mum6VYqF8RtvSXm0f4jDDT5UiJs9HziMBPPuamMr9cbbtIOqxHhBOn1L4cg+ccob
YVnqxsTKMl7J6b8SKebGw2P+oFXaevFgmE0m7fpwLQIDAQABo4IBDjCCAQowCwYD
VR0PBAQDAgWgMAkGA1UdEwQCMAAwEQYJYIZIAYb4QgEBBAQDAgZAMDMGCWCGSAGG
+EIBDQQmFiRPcGVuU1NMIEdlbmVyYXRlZCBTZXJ2ZXIgQ2VydGlmaWNhdGUwHQYD
VR0OBBYEFFM/7V0JB7Nle6tFySRbCXeACpbtMHQGA1UdIwRtMGuAFPSnwMyRRq9k
85HyJ/jIsm+KhzJzoUikRjBEMQswCQYDVQQGEwJERTEPMA0GA1UECAwGSGVzc2Vu
MRQwEgYDVQQKDAtwcml2YWN5aWRlYTEOMAwGA1UEAwwFQ0EwMDGCCQD7yOusg80S
BzATBgNVHSUEDDAKBggrBgEFBQcDATANBgkqhkiG9w0BAQsFAAOCAQEACQmJB7pr
GP4ER2I9hRRElIza5ZEcEDEiB9dZudofjxr7EwtO8hXT86YlaG3OpBL/4sUTYwES
KsgEbUZ/bTdOOdm+JsacQYM2ipEBDxtx+mRx96GWjUPPL24Oa2NV9PvZEx7MrtUD
QwjwmUZiyonrdNxM2lXENrOYcbfywDQjr7pgwgas3bNvohQYVA9sQISndVwdMLnx
vSx/j6f2Ewh0KMxOeiqIAnvYJrLMorJcbrYtjy1B/QB5pjlUXz4jtileJiktz5pf
i+yIpOiPlkVIJPLYtp6+JP864zzRMWLihvISqY6I8ZNlg+cOFSNNbOERH2yxbJPK
NBPTelaghQVm7g==
-----END CERTIFICATE-----
