Certificate:
    Data:
        Version: 3 (0x2)
        Serial Number: 268435672 (0x100000d8)
        Signature Algorithm: sha256WithRSAEncryption
        Issuer: C=DE, ST=Hessen, O=privacyidea, CN=CA001
        Validity
            Not Before: Aug 16 15:10:34 2019 GMT
            Not After : Aug 15 15:10:34 2020 GMT
        Subject: C=DE, ST=Hessen, O=privacyidea, CN=requester.localdomain
        Subject Public Key Info:
            Public Key Algorithm: rsaEncryption
                RSA Public-Key: (2048 bit)
                Modulus:
                    00:cd:be:14:4f:fa:ce:01:3f:42:22:1b:1d:9c:af:
                    dd:92:d2:7f:db:6c:b7:3e:39:43:43:6b:13:03:f1:
                    05:f4:07:74:bc:76:69:28:0b:af:19:8e:d7:fc:e3:
                    cd:c6:58:f2:ca:7f:08:6d:53:fc:07:02:44:24:c6:
                    b4:34:4c:8c:04:fe:33:0e:40:e2:20:ba:02:73:5a:
                    f7:f5:4f:63:6e:cc:c6:b6:df:54:1d:37:39:7d:51:
                    36:26:5f:bd:dc:3f:a8:8b:6b:a2:ae:b6:9d:d6:21:
                    e7:df:41:b8:7a:28:2a:68:48:ca:a8:2d:ed:e1:e9:
                    46:5e:5a:72:6d:b4:84:38:87:91:fd:94:11:0b:28:
                    84:c6:c2:2f:2a:fb:01:f9:36:7a:09:75:d1:33:88:
                    3c:73:41:5b:c8:bf:94:89:70:a1:f0:c0:b9:2e:50:
                    53:1e:b1:17:64:69:f4:2d:81:e0:a9:0d:0e:32:e9:
                    ba:55:8a:85:f1:1b:6f:49:79:b4:7f:88:c3:0d:3e:
                    54:88:9b:3d:1f:38:8c:04:f3:ee:6a:63:2b:f5:c6:
                    db:b4:83:aa:c4:78:41:3a:7d:4b:e1:c8:3e:71:ca:
                    1b:61:59:ea:c6:c4:ca:32:5e:c9:e9:bf:12:29:e6:
                    c6:c3:63:fe:a0:55:da:7a:f1:60:98:4d:26:ed:fa:
                    70:2d
                Exponent: 65537 (0x10001)
        X509v3 extensions:
            X509v3 Key Usage: 
                Digital Signature, Key Encipherment
            X509v3 Basic Constraints: 
                CA:FALSE
            Netscape Cert Type: 
                SSL Server
            Netscape Comment: 
                OpenSSL Generated Server Certificate
            X509v3 Subject Key Identifier: 
                53:3F:ED:5D:09:07:B3:65:7B:AB:45:C9:24:5B:09:77:80:0A:96:ED
            X509v3 Authority Key Identifier: 
                keyid:F4:A7:C0:CC:91:46:AF:64:F3:91:F2:27:F8:C8:B2:6F:8A:87:32:73
                DirName:/C=DE/ST=Hessen/O=privacyidea/CN=CA001
                serial:FB:C8:EB:AC:83:CD:12:07

            X509v3 Extended Key Usage: 
                TLS Web Server Authentication
    Signature Algorithm: sha256WithRSAEncryption
         8d:c1:e9:e6:3b:bc:a0:45:fb:b5:1c:8b:4b:46:9c:2c:83:73:
         97:94:1a:1f:06:29:12:3d:0d:61:a6:fc:36:0f:1b:83:47:fb:
         3f:be:fd:af:8b:06:de:86:a8:c2:2e:90:f5:42:8e:01:e9:0f:
         98:31:d2:55:a2:e8:98:e2:8d:69:82:72:84:f1:49:d5:c0:a6:
         dd:ed:3b:61:35:5a:a8:74:85:23:b6:1e:04:ef:b2:4a:49:99:
         e0:78:34:e8:2a:97:76:2d:06:f2:56:39:4e:86:18:8a:1b:4a:
         d0:62:7e:0b:85:4a:c3:f6:39:22:9f:08:bd:54:5e:33:42:8f:
         4a:4c:5b:6f:62:e1:68:d2:17:34:c0:d0:9a:37:39:f1:02:ba:
         70:e6:b9:b7:6e:0c:21:ee:25:29:8f:f4:da:25:12:21:2e:dd:
         5a:83:16:7f:7b:63:19:ba:9b:bc:5f:d9:88:ff:f9:fd:ad:f8:
         a8:6f:80:10:9b:9d:89:b1:4d:ab:1e:fd:1d:47:f3:05:4c:27:
         44:1b:d8:b0:2c:a7:e8:22:42:e5:81:70:2f:32:98:38:1b:17:
         22:18:0a:b0:9f:11:e8:d4:b1:26:e2:32:10:cc:66:2d:aa:69:
         b0:95:18:4c:12:5a:69:ff:ad:9a:c4:6a:b9:44:b2:89:1c:49:
         89:7d:43:5c
-----BEGIN CERTIFICATE-----
MIIEJjCCAw6gAwIBAgIEEAAA2DANBgkqhkiG9w0BAQsFADBEMQswCQYDVQQGEwJE
RTEPMA0GA1UECAwGSGVzc2VuMRQwEgYDVQQKDAtwcml2YWN5aWRlYTEOMAwGA1UE
AwwFQ0EwMDEwHhcNMTkwODE2MTUxMDM0WhcNMjAwODE1MTUxMDM0WjBUMQswCQYD
VQQGEwJERTEPMA0GA1UECAwGSGVzc2VuMRQwEgYDVQQKDAtwcml2YWN5aWRlYTEe
MBwGA1UEAwwVcmVxdWVzdGVyLmxvY2FsZG9tYWluMIIBIjANBgkqhkiG9w0BAQEF
AAOCAQ8AMIIBCgKCAQEAzb4UT/rOAT9CIhsdnK/dktJ/22y3PjlDQ2sTA/EF9Ad0
vHZpKAuvGY7X/OPNxljyyn8IbVP8BwJEJMa0NEyMBP4zDkDiILoCc1r39U9jbszG
tt9UHTc5fVE2Jl+93D+oi2uirrad1iHn30G4eigqaEjKqC3t4elGXlpybbSEOIeR
/ZQRCyiExsIvKvsB+TZ6CXXRM4g8c0FbyL+UiXCh8MC5LlBTHrEXZGn0LYHgqQ0O
Mum6VYqF8RtvSXm0f4jDDT5UiJs9HziMBPPuamMr9cbbtIOqxHhBOn1L4cg+ccob
YVnqxsTKMl7J6b8SKebGw2P+oFXaevFgmE0m7fpwLQIDAQABo4IBDjCCAQowCwYD
VR0PBAQDAgWgMAkGA1UdEwQCMAAwEQYJYIZIAYb4QgEBBAQDAgZAMDMGCWCGSAGG
+EIBDQQmFiRPcGVuU1NMIEdlbmVyYXRlZCBTZXJ2ZXIgQ2VydGlmaWNhdGUwHQYD
VR0OBBYEFFM/7V0JB7Nle6tFySRbCXeACpbtMHQGA1UdIwRtMGuAFPSnwMyRRq9k
85HyJ/jIsm+KhzJzoUikRjBEMQswCQYDVQQGEwJERTEPMA0GA1UECAwGSGVzc2Vu
MRQwEgYDVQQKDAtwcml2YWN5aWRlYTEOMAwGA1UEAwwFQ0EwMDGCCQD7yOusg80S
BzATBgNVHSUEDDAKBggrBgEFBQcDATANBgkqhkiG9w0BAQsFAAOCAQEAjcHp5ju8
oEX7tRyLS0acLINzl5QaHwYpEj0NYab8Ng8bg0f7P779r4sG3oaowi6Q9UKOAekP
mDHSVaLomOKNaYJyhPFJ1cCm3e07YTVaqHSFI7YeBO+ySkmZ4Hg06CqXdi0G8lY5
ToYYihtK0GJ+C4VKw/Y5Ip8IvVReM0KPSkxbb2LhaNIXNMDQmjc58QK6cOa5t24M
Ie4lKY/02iUSIS7dWoMWf3tjGbqbvF/ZiP/5/a34qG+AEJudibFNqx79HUfzBUwn
RBvYsCyn6CJC5YFwLzKYOBsXIhgKsJ8R6NSxJuIyEMxmLappsJUYTBJaaf+tmsRq
uUSyiRxJiX1DXA==
-----END CERTIFICATE-----
