Certificate:
    Data:
        Version: 3 (0x2)
        Serial Number: 268435687 (0x100000e7)
        Signature Algorithm: sha256WithRSAEncryption
        Issuer: C=DE, ST=Hessen, O=privacyidea, CN=CA001
        Validity
            Not Before: Aug 15 09:30:47 2019 GMT
            Not After : Aug 14 09:30:47 2020 GMT
        Subject: CN=selfservice,CN=user,O=realm1/emailAddress=meine
        Subject Public Key Info:
            Public Key Algorithm: rsaEncryption
                RSA Public-Key: (2048 bit)
                Modulus:
                    00:cf:3c:d4:33:0e:12:c4:e6:da:cd:b6:56:a1:1c:
                    26:bb:26:1c:8a:4a:73:a8:58:8a:b6:1e:b3:8b:99:
                    d2:1d:07:c2:92:89:79:c0:69:d8:c8:df:28:61:98:
                    1e:b3:fe:ae:2b:bd:78:a9:f7:6e:47:dc:a3:a0:16:
                    8c:85:02:c1:4e:92:fd:72:6e:f0:c8:03:29:9b:b8:
                    00:6e:c0:83:95:c8:34:20:36:9c:b3:e5:e4:e6:76:
                    73:a3:1a:ad:40:96:e0:53:54:00:ec:76:79:9a:c6:
                    0d:7e:b6:bd:29:ec:83:f3:cb:89:a4:cb:6c:00:ba:
                    0c:c5:78:0f:ff:69:b8:94:f4:04:70:43:3f:d8:9e:
                    d7:a7:fb:5d:ce:75:8e:da:e7:c4:07:b1:9d:de:6f:
                    88:4b:b6:4d:9a:cf:f9:bc:fa:9f:cd:32:6d:f6:3a:
                    0b:0d:23:42:78:ec:97:42:bf:0e:4d:60:56:e1:d3:
                    02:f2:19:cb:84:57:90:e5:70:a1:a2:83:35:86:e2:
                    da:86:9f:f9:8a:c4:79:b3:52:28:da:cb:bb:34:ca:
                    d3:da:91:4a:cf:8d:76:a2:b2:6b:9b:f9:96:fd:09:
                    2a:da:11:23:4d:f0:cb:d6:b2:b1:0e:12:6c:9a:19:
                    65:98:87:ca:e4:ee:24:ce:44:ac:90:8f:9d:1b:c5:
                    2a:9d
                Exponent: 65537 (0x10001)
        X509v3 extensions:
            X509v3 Key Usage: 
                Digital Signature, Key Encipherment
            X509v3 Basic Constraints: 
                CA:FALSE
            Netscape Cert Type: 
                SSL Server
            Netscape Comment: 
                OpenSSL Generated Server Certificate
            X509v3 Subject Key Identifier: 
                4D:07:90:AD:FF:1D:0D:E7:1A:DD:D6:2E:FA:BA:34:CB:AA:1F:24:C6
            X509v3 Authority Key Identifier: 
                keyid:F4:A7:C0:CC:91:46:AF:64:F3:91:F2:27:F8:C8:B2:6F:8A:87:32:73
                DirName:/C=DE/ST=Hessen/O=privacyidea/CN=CA001
                serial:FB:C8:EB:AC:83:CD:12:07

            X509v3 Extended Key Usage: 
                TLS Web Server Authentication
    Signature Algorithm: sha256WithRSAEncryption
         1d:db:aa:bb:eb:fe:ad:9b:a9:56:2d:84:7c:94:43:f5:a5:82:
         75:30:51:c8:09:2f:48:f9:78:95:05:87:13:f5:ec:9f:4c:34:
         ca:7d:15:76:c7:e4:81:ed:71:92:88:aa:2d:c3:e0:3b:be:02:
         1f:d5:c0:a8:3c:44:a7:ed:28:bf:17:6f:b5:7a:74:5d:33:2a:
         06:e6:62:04:57:99:de:5b:49:11:71:ed:48:24:72:22:f2:92:
         ee:46:78:b4:93:a6:80:a4:a5:3d:44:95:e4:c5:e8:c1:79:37:
         f0:f5:b9:52:13:84:24:e6:5d:ca:5a:ba:06:76:68:b9:9b:cc:
         eb:2c:19:d1:43:34:c4:78:f9:ef:e6:97:c6:be:55:04:1c:94:
         20:18:33:b0:70:21:45:4f:5e:40:0f:10:ed:cf:f0:5f:f5:29:
         3a:38:3e:91:fc:0b:e2:37:dd:e6:af:e9:ee:67:eb:d3:44:8a:
         b4:dc:19:45:7e:22:9b:b2:eb:42:ae:9e:a8:ed:e9:54:5b:70:
         18:0e:70:a6:6c:67:40:b5:e5:0d:46:f9:51:14:40:a8:c7:6e:
         5d:9e:cb:84:e6:b0:8f:60:9f:95:81:f1:0f:55:09:ae:80:1e:
         f6:25:50:92:8b:91:a5:f7:75:8b:c5:39:0a:c4:d1:0e:4d:55:
         7f:27:8e:68
-----BEGIN CERTIFICATE-----
MIIEDzCCAvegAwIBAgIEEAAA5zANBgkqhkiG9w0BAQsFADBEMQswCQYDVQQGEwJE
RTEPMA0GA1UECAwGSGVzc2VuMRQwEgYDVQQKDAtwcml2YWN5aWRlYTEOMAwGA1UE
AwwFQ0EwMDEwHhcNMTkwODE1MDkzMDQ3WhcNMjAwODE0MDkzMDQ3WjA9MSUwIwYD
VQQDDBxzZWxmc2VydmljZSxDTj11c2VyLE89cmVhbG0xMRQwEgYJKoZIhvcNAQkB
FgVtZWluZTCCASIwDQYJKoZIhvcNAQEBBQADggEPADCCAQoCggEBAM881DMOEsTm
2s22VqEcJrsmHIpKc6hYirYes4uZ0h0HwpKJecBp2MjfKGGYHrP+riu9eKn3bkfc
o6AWjIUCwU6S/XJu8MgDKZu4AG7Ag5XINCA2nLPl5OZ2c6MarUCW4FNUAOx2eZrG
DX62vSnsg/PLiaTLbAC6DMV4D/9puJT0BHBDP9ie16f7Xc51jtrnxAexnd5viEu2
TZrP+bz6n80ybfY6Cw0jQnjsl0K/Dk1gVuHTAvIZy4RXkOVwoaKDNYbi2oaf+YrE
ebNSKNrLuzTK09qRSs+NdqKya5v5lv0JKtoRI03wy9aysQ4SbJoZZZiHyuTuJM5E
rJCPnRvFKp0CAwEAAaOCAQ4wggEKMAsGA1UdDwQEAwIFoDAJBgNVHRMEAjAAMBEG
CWCGSAGG+EIBAQQEAwIGQDAzBglghkgBhvhCAQ0EJhYkT3BlblNTTCBHZW5lcmF0
ZWQgU2VydmVyIENlcnRpZmljYXRlMB0GA1UdDgQWBBRNB5Ct/x0N5xrd1i76ujTL
qh8kxjB0BgNVHSMEbTBrgBT0p8DMkUavZPOR8if4yLJviocyc6FIpEYwRDELMAkG
A1UEBhMCREUxDzANBgNVBAgMBkhlc3NlbjEUMBIGA1UECgwLcHJpdmFjeWlkZWEx
DjAMBgNVBAMMBUNBMDAxggkA+8jrrIPNEgcwEwYDVR0lBAwwCgYIKwYBBQUHAwEw
DQYJKoZIhvcNAQELBQADggEBAB3bqrvr/q2bqVYthHyUQ/WlgnUwUcgJL0j5eJUF
hxP17J9MNMp9FXbH5IHtcZKIqi3D4Du+Ah/VwKg8RKftKL8Xb7V6dF0zKgbmYgRX
md5bSRFx7UgkciLyku5GeLSTpoCkpT1EleTF6MF5N/D1uVIThCTmXcpaugZ2aLmb
zOssGdFDNMR4+e/ml8a+VQQclCAYM7BwIUVPXkAPEO3P8F/1KTo4PpH8C+I33eav
6e5n69NEirTcGUV+Ipuy60Kunqjt6VRbcBgOcKZsZ0C15Q1G+VEUQKjHbl2ey4Tm
sI9gn5WB8Q9VCa6AHvYlUJKLkaX3dYvFOQrE0Q5NVX8njmg=
-----END CERTIFICATE-----
