Certificate:
    Data:
        Version: 3 (0x2)
        Serial Number: 268435668 (0x100000d4)
        Signature Algorithm: sha256WithRSAEncryption
        Issuer: C=DE, ST=Hessen, O=privacyidea, CN=CA001
        Validity
            Not Before: Aug 19 14:03:03 2019 GMT
            Not After : Sep  7 14:03:03 2021 GMT
        Subject: CN=Steve Test/emailAddress=steve@openssl.org
        Subject Public Key Info:
            Public Key Algorithm: rsaEncryption
                RSA Public-Key: (2048 bit)
                Modulus:
                    00:d2:81:89:20:51:48:0f:73:f4:11:32:24:d5:1f:
                    1c:fd:5c:f5:b6:e6:c5:f0:52:81:dc:d2:af:66:4a:
                    7c:93:31:61:5c:af:d1:6d:06:70:03:60:7c:72:0c:
                    88:dd:49:cd:9e:02:6c:d2:5a:d7:53:0f:f3:da:be:
                    69:64:b5:0f:0c:00:e3:b3:50:47:a3:b3:9b:ba:13:
                    50:d6:58:5a:4b:ab:39:e0:11:ca:0a:27:67:03:78:
                    22:66:6d:92:1e:1b:5c:49:ae:e6:6b:d1:8e:3b:9d:
                    06:d3:c6:ac:4d:53:43:10:ab:e8:96:c1:87:82:97:
                    99:8f:20:d3:99:12:37:31:84:e1:8a:ff:29:03:5f:
                    22:90:3e:7f:9b:e0:20:c1:ad:dc:ae:4c:39:1a:31:
                    96:17:02:8c:b2:d9:b4:0d:20:12:9b:7d:86:54:fd:
                    33:fd:c1:2a:62:46:f8:60:96:cf:6e:01:6f:22:df:
                    13:47:e7:97:ec:05:72:23:a3:62:f8:fa:ef:ac:9c:
                    72:f0:37:cb:2f:37:cf:90:a8:27:51:86:c6:d7:78:
                    08:8f:7e:25:a2:15:70:a2:fb:1c:b6:15:5e:a0:97:
                    8b:81:4c:09:28:8a:27:3b:94:bc:71:db:5b:71:37:
                    9a:2b:16:e0:6f:b5:c9:f5:4b:4f:20:ba:65:cf:af:
                    ad:ad
                Exponent: 65537 (0x10001)
        X509v3 extensions:
            X509v3 Key Usage: 
                Digital Signature, Key Encipherment
            X509v3 Basic Constraints: 
                CA:FALSE
            Netscape Cert Type: 
                SSL Server
            Netscape Comment: 
                OpenSSL Generated Server Certificate
            X509v3 Subject Key Identifier: 
                E5:25:6D:3E:AF:0D:DD:3F:4C:F2:45:19:39:D5:14:DB:7E:9C:C0:AD
            X509v3 Authority Key Identifier: 
                keyid:F4:A7:C0:CC:91:46:AF:64:F3:91:F2:27:F8:C8:B2:6F:8A:87:32:73
                DirName:/C=DE/ST=Hessen/O=privacyidea/CN=CA001
                serial:FB:C8:EB:AC:83:CD:12:07

            X509v3 Extended Key Usage: 
                TLS Web Server Authentication
    Signature Algorithm: sha256WithRSAEncryption
         ab:a2:22:2f:14:67:6f:fe:b8:9e:81:9b:c5:12:8e:d5:e6:ab:
         69:63:b3:6f:98:b2:27:e7:4f:fe:9a:e0:3f:cb:79:96:0b:d8:
         6c:73:55:7f:22:4f:d5:50:93:ae:b1:bb:c2:74:7e:43:5d:4e:
         fd:3e:61:ff:da:4d:d9:3b:cd:72:d7:00:e2:bc:c1:fb:8f:d3:
         9e:10:3e:09:29:91:84:31:e1:75:3f:e8:ec:9d:42:42:0f:be:
         38:c9:1a:d8:57:a2:6f:1b:29:95:bb:17:32:05:34:34:ff:3c:
         14:a0:cd:cf:df:24:57:03:d0:b5:ed:13:5f:7a:b4:e7:12:8e:
         a4:c9:75:0b:c5:97:25:82:a8:a3:af:3b:cb:f1:40:c9:c2:17:
         fa:dc:a1:60:b9:dd:cb:95:fc:43:4a:3a:39:1e:40:0c:06:aa:
         aa:73:94:ad:31:e5:8b:4b:64:5d:b0:85:08:c4:48:d8:a7:72:
         a6:68:5a:77:de:c6:2b:2a:86:c3:77:fa:9b:e1:69:9f:c5:77:
         7d:c9:a6:f7:a4:95:62:15:3a:55:f1:2a:8e:1f:5f:3c:9c:b7:
         89:a3:6b:43:65:d8:1b:c2:c2:1d:99:7f:ea:95:fc:44:09:71:
         6a:c3:ce:5b:b5:2e:99:0f:cf:d6:59:a9:28:07:2f:f7:26:b1:
         88:a8:89:9d
-----BEGIN CERTIFICATE-----
MIIECTCCAvGgAwIBAgIEEAAA1DANBgkqhkiG9w0BAQsFADBEMQswCQYDVQQGEwJE
RTEPMA0GA1UECAwGSGVzc2VuMRQwEgYDVQQKDAtwcml2YWN5aWRlYTEOMAwGA1UE
AwwFQ0EwMDEwHhcNMTkwODE5MTQwMzAzWhcNMjEwOTA3MTQwMzAzWjA3MRMwEQYD
VQQDDApTdGV2ZSBUZXN0MSAwHgYJKoZIhvcNAQkBFhFzdGV2ZUBvcGVuc3NsLm9y
ZzCCASIwDQYJKoZIhvcNAQEBBQADggEPADCCAQoCggEBANKBiSBRSA9z9BEyJNUf
HP1c9bbmxfBSgdzSr2ZKfJMxYVyv0W0GcANgfHIMiN1JzZ4CbNJa11MP89q+aWS1
DwwA47NQR6Ozm7oTUNZYWkurOeARygonZwN4ImZtkh4bXEmu5mvRjjudBtPGrE1T
QxCr6JbBh4KXmY8g05kSNzGE4Yr/KQNfIpA+f5vgIMGt3K5MORoxlhcCjLLZtA0g
Ept9hlT9M/3BKmJG+GCWz24BbyLfE0fnl+wFciOjYvj676yccvA3yy83z5CoJ1GG
xtd4CI9+JaIVcKL7HLYVXqCXi4FMCSiKJzuUvHHbW3E3misW4G+1yfVLTyC6Zc+v
ra0CAwEAAaOCAQ4wggEKMAsGA1UdDwQEAwIFoDAJBgNVHRMEAjAAMBEGCWCGSAGG
+EIBAQQEAwIGQDAzBglghkgBhvhCAQ0EJhYkT3BlblNTTCBHZW5lcmF0ZWQgU2Vy
dmVyIENlcnRpZmljYXRlMB0GA1UdDgQWBBTlJW0+rw3dP0zyRRk51RTbfpzArTB0
BgNVHSMEbTBrgBT0p8DMkUavZPOR8if4yLJviocyc6FIpEYwRDELMAkGA1UEBhMC
REUxDzANBgNVBAgMBkhlc3NlbjEUMBIGA1UECgwLcHJpdmFjeWlkZWExDjAMBgNV
BAMMBUNBMDAxggkA+8jrrIPNEgcwEwYDVR0lBAwwCgYIKwYBBQUHAwEwDQYJKoZI
hvcNAQELBQADggEBAKuiIi8UZ2/+uJ6Bm8USjtXmq2ljs2+YsifnT/6a4D/LeZYL
2GxzVX8iT9VQk66xu8J0fkNdTv0+Yf/aTdk7zXLXAOK8wfuP054QPgkpkYQx4XU/
6OydQkIPvjjJGthXom8bKZW7FzIFNDT/PBSgzc/fJFcD0LXtE196tOcSjqTJdQvF
lyWCqKOvO8vxQMnCF/rcoWC53cuV/ENKOjkeQAwGqqpzlK0x5YtLZF2whQjESNin
cqZoWnfexisqhsN3+pvhaZ/Fd33JpveklWIVOlXxKo4fXzyct4mja0Nl2BvCwh2Z
f+qV/EQJcWrDzlu1LpkPz9ZZqSgHL/cmsYioiZ0=
-----END CERTIFICATE-----
