Certificate:
    Data:
        Version: 3 (0x2)
        Serial Number: 268435679 (0x100000df)
        Signature Algorithm: sha256WithRSAEncryption
        Issuer: C=DE, ST=Hessen, O=privacyidea, CN=CA001
        Validity
            Not Before: Aug 15 09:12:45 2019 GMT
            Not After : Aug 14 09:12:45 2020 GMT
        Subject: CN=selfservice,CN=user,O=realm1/emailAddress=meine
        Subject Public Key Info:
            Public Key Algorithm: rsaEncryption
                RSA Public-Key: (2048 bit)
                Modulus:
                    00:cf:3c:d4:33:0e:12:c4:e6:da:cd:b6:56:a1:1c:
                    26:bb:26:1c:8a:4a:73:a8:58:8a:b6:1e:b3:8b:99:
                    d2:1d:07:c2:92:89:79:c0:69:d8:c8:df:28:61:98:
                    1e:b3:fe:ae:2b:bd:78:a9:f7:6e:47:dc:a3:a0:16:
                    8c:85:02:c1:4e:92:fd:72:6e:f0:c8:03:29:9b:b8:
                    00:6e:c0:83:95:c8:34:20:36:9c:b3:e5:e4:e6:76:
                    73:a3:1a:ad:40:96:e0:53:54:00:ec:76:79:9a:c6:
                    0d:7e:b6:bd:29:ec:83:f3:cb:89:a4:cb:6c:00:ba:
                    0c:c5:78:0f:ff:69:b8:94:f4:04:70:43:3f:d8:9e:
                    d7:a7:fb:5d:ce:75:8e:da:e7:c4:07:b1:9d:de:6f:
                    88:4b:b6:4d:9a:cf:f9:bc:fa:9f:cd:32:6d:f6:3a:
                    0b:0d:23:42:78:ec:97:42:bf:0e:4d:60:56:e1:d3:
                    02:f2:19:cb:84:57:90:e5:70:a1:a2:83:35:86:e2:
                    da:86:9f:f9:8a:c4:79:b3:52:28:da:cb:bb:34:ca:
                    d3:da:91:4a:cf:8d:76:a2:b2:6b:9b:f9:96:fd:09:
                    2a:da:11:23:4d:f0:cb:d6:b2:b1:0e:12:6c:9a:19:
                    65:98:87:ca:e4:ee:24:ce:44:ac:90:8f:9d:1b:c5:
                    2a:9d
                Exponent: 65537 (0x10001)
        X509v3 extensions:
            X509v3 Key Usage: 
                Digital Signature, Key Encipherment
            X509v3 Basic Constraints: 
                CA:FALSE
            Netscape Cert Type: 
                SSL Server
            Netscape Comment: 
                OpenSSL Generated Server Certificate
            X509v3 Subject Key Identifier: 
                4D:07:90:AD:FF:1D:0D:E7:1A:DD:D6:2E:FA:BA:34:CB:AA:1F:24:C6
            X509v3 Authority Key Identifier: 
                keyid:F4:A7:C0:CC:91:46:AF:64:F3:91:F2:27:F8:C8:B2:6F:8A:87:32:73
                DirName:/C=DE/ST=Hessen/O=privacyidea/CN=CA001
                serial:FB:C8:EB:AC:83:CD:12:07

            X509v3 Extended Key Usage: 
                TLS Web Server Authentication
    Signature Algorithm: sha256WithRSAEncryption
         32:f8:b0:bc:13:66:e2:86:75:60:47:a4:d3:cb:f3:3a:1a:47:
         bb:33:cb:46:2b:2b:60:57:88:9a:5a:71:e1:87:a9:eb:11:e7:
         5c:23:93:0f:59:ea:0a:1a:d0:b2:f1:09:9e:87:19:88:79:e9:
         95:54:e2:aa:3c:3f:c5:69:fe:c8:54:88:37:e0:22:1d:38:3d:
         3a:06:86:5c:97:fb:67:ba:91:8a:da:76:3c:6a:c6:6b:f7:a9:
         e6:e7:06:4f:77:c1:14:01:49:dd:47:da:30:e7:8e:8a:79:81:
         87:5e:37:0b:4f:91:16:d0:2e:db:e9:91:e4:35:bf:6f:84:39:
         d1:bd:a8:6c:2d:d1:24:cc:60:4b:03:42:2e:cc:59:f0:ce:0e:
         46:5d:e6:3c:4f:0f:49:4f:ca:2c:7e:ed:36:aa:50:7c:bb:7a:
         7f:ef:c2:ca:42:a7:da:fc:46:08:01:28:d1:3a:bf:59:e0:35:
         70:47:5c:1c:1e:80:59:5d:64:33:c3:3b:39:17:89:bf:1c:65:
         52:bc:77:37:1b:05:5f:95:03:fc:59:67:49:49:06:c1:7e:e3:
         62:53:30:13:55:64:19:27:e1:8f:1b:ed:cf:dc:d4:9b:9a:a2:
         14:ba:cb:c1:87:d1:c4:97:89:50:2f:ae:de:39:5b:35:2b:2f:
         83:64:32:2c
-----BEGIN CERTIFICATE-----
MIIEDzCCAvegAwIBAgIEEAAA3zANBgkqhkiG9w0BAQsFADBEMQswCQYDVQQGEwJE
RTEPMA0GA1UECAwGSGVzc2VuMRQwEgYDVQQKDAtwcml2YWN5aWRlYTEOMAwGA1UE
AwwFQ0EwMDEwHhcNMTkwODE1MDkxMjQ1WhcNMjAwODE0MDkxMjQ1WjA9MSUwIwYD
VQQDDBxzZWxmc2VydmljZSxDTj11c2VyLE89cmVhbG0xMRQwEgYJKoZIhvcNAQkB
FgVtZWluZTCCASIwDQYJKoZIhvcNAQEBBQADggEPADCCAQoCggEBAM881DMOEsTm
2s22VqEcJrsmHIpKc6hYirYes4uZ0h0HwpKJecBp2MjfKGGYHrP+riu9eKn3bkfc
o6AWjIUCwU6S/XJu8MgDKZu4AG7Ag5XINCA2nLPl5OZ2c6MarUCW4FNUAOx2eZrG
DX62vSnsg/PLiaTLbAC6DMV4D/9puJT0BHBDP9ie16f7Xc51jtrnxAexnd5viEu2
TZrP+bz6n80ybfY6Cw0jQnjsl0K/Dk1gVuHTAvIZy4RXkOVwoaKDNYbi2oaf+YrE
ebNSKNrLuzTK09qRSs+NdqKya5v5lv0JKtoRI03wy9aysQ4SbJoZZZiHyuTuJM5E
rJCPnRvFKp0CAwEAAaOCAQ4wggEKMAsGA1UdDwQEAwIFoDAJBgNVHRMEAjAAMBEG
CWCGSAGG+EIBAQQEAwIGQDAzBglghkgBhvhCAQ0EJhYkT3BlblNTTCBHZW5lcmF0
ZWQgU2VydmVyIENlcnRpZmljYXRlMB0GA1UdDgQWBBRNB5Ct/x0N5xrd1i76ujTL
qh8kxjB0BgNVHSMEbTBrgBT0p8DMkUavZPOR8if4yLJviocyc6FIpEYwRDELMAkG
A1UEBhMCREUxDzANBgNVBAgMBkhlc3NlbjEUMBIGA1UECgwLcHJpdmFjeWlkZWEx
DjAMBgNVBAMMBUNBMDAxggkA+8jrrIPNEgcwEwYDVR0lBAwwCgYIKwYBBQUHAwEw
DQYJKoZIhvcNAQELBQADggEBADL4sLwTZuKGdWBHpNPL8zoaR7szy0YrK2BXiJpa
ceGHqesR51wjkw9Z6goa0LLxCZ6HGYh56ZVU4qo8P8Vp/shUiDfgIh04PToGhlyX
+2e6kYradjxqxmv3qebnBk93wRQBSd1H2jDnjop5gYdeNwtPkRbQLtvpkeQ1v2+E
OdG9qGwt0STMYEsDQi7MWfDODkZd5jxPD0lPyix+7TaqUHy7en/vwspCp9r8RggB
KNE6v1ngNXBHXBwegFldZDPDOzkXib8cZVK8dzcbBV+VA/xZZ0lJBsF+42JTMBNV
ZBkn4Y8b7c/c1JuaohS6y8GH0cSXiVAvrt45WzUrL4NkMiw=
-----END CERTIFICATE-----
