Certificate:
    Data:
        Version: 3 (0x2)
        Serial Number: 268435671 (0x100000d7)
        Signature Algorithm: sha256WithRSAEncryption
        Issuer: C=DE, ST=Hessen, O=privacyidea, CN=CA001
        Validity
            Not Before: Aug 19 14:06:51 2019 GMT
            Not After : Aug 18 14:06:51 2020 GMT
        Subject: CN=selfservice,CN=user,O=realm1/emailAddress=meine
        Subject Public Key Info:
            Public Key Algorithm: rsaEncryption
                RSA Public-Key: (2048 bit)
                Modulus:
                    00:cf:3c:d4:33:0e:12:c4:e6:da:cd:b6:56:a1:1c:
                    26:bb:26:1c:8a:4a:73:a8:58:8a:b6:1e:b3:8b:99:
                    d2:1d:07:c2:92:89:79:c0:69:d8:c8:df:28:61:98:
                    1e:b3:fe:ae:2b:bd:78:a9:f7:6e:47:dc:a3:a0:16:
                    8c:85:02:c1:4e:92:fd:72:6e:f0:c8:03:29:9b:b8:
                    00:6e:c0:83:95:c8:34:20:36:9c:b3:e5:e4:e6:76:
                    73:a3:1a:ad:40:96:e0:53:54:00:ec:76:79:9a:c6:
                    0d:7e:b6:bd:29:ec:83:f3:cb:89:a4:cb:6c:00:ba:
                    0c:c5:78:0f:ff:69:b8:94:f4:04:70:43:3f:d8:9e:
                    d7:a7:fb:5d:ce:75:8e:da:e7:c4:07:b1:9d:de:6f:
                    88:4b:b6:4d:9a:cf:f9:bc:fa:9f:cd:32:6d:f6:3a:
                    0b:0d:23:42:78:ec:97:42:bf:0e:4d:60:56:e1:d3:
                    02:f2:19:cb:84:57:90:e5:70:a1:a2:83:35:86:e2:
                    da:86:9f:f9:8a:c4:79:b3:52:28:da:cb:bb:34:ca:
                    d3:da:91:4a:cf:8d:76:a2:b2:6b:9b:f9:96:fd:09:
                    2a:da:11:23:4d:f0:cb:d6:b2:b1:0e:12:6c:9a:19:
                    65:98:87:ca:e4:ee:24:ce:44:ac:90:8f:9d:1b:c5:
                    2a:9d
                Exponent: 65537 (0x10001)
        X509v3 extensions:
            X509v3 Key Usage: 
                Digital Signature, Key Encipherment
            X509v3 Basic Constraints: 
                CA:FALSE
            Netscape Cert Type: 
                SSL Server
            Netscape Comment: 
                OpenSSL Generated Server Certificate
            X509v3 Subject Key Identifier: 
                4D:07:90:AD:FF:1D:0D:E7:1A:DD:D6:2E:FA:BA:34:CB:AA:1F:24:C6
            X509v3 Authority Key Identifier: 
                keyid:F4:A7:C0:CC:91:46:AF:64:F3:91:F2:27:F8:C8:B2:6F:8A:87:32:73
                DirName:/C=DE/ST=Hessen/O=privacyidea/CN=CA001
                serial:FB:C8:EB:AC:83:CD:12:07

            X509v3 Extended Key Usage: 
                TLS Web Server Authentication
    Signature Algorithm: sha256WithRSAEncryption
         45:4c:9d:62:b7:51:84:ca:fc:31:a9:95:02:55:c8:e0:7d:94:
         88:b9:cf:fe:48:da:df:a7:d1:a9:20:3c:ef:0f:2e:36:25:87:
         f0:a8:e6:16:17:cc:af:64:d5:e3:f5:52:46:69:ff:c8:01:df:
         6d:99:a8:4f:19:be:a9:c1:cd:1c:7c:cb:8a:47:eb:99:e8:67:
         f1:d8:a0:c4:14:20:4f:d3:ea:5c:b6:d2:b3:7d:a4:f7:8c:89:
         0c:d7:fe:85:c2:90:5e:54:1d:85:bd:9d:9d:4a:5f:9f:c8:1e:
         45:8d:d3:d2:e3:25:70:4d:a4:bf:0f:e8:72:5d:88:01:34:fc:
         15:86:b6:3b:bc:60:fc:35:08:eb:0b:b8:f7:84:0e:5c:91:9a:
         8a:a9:47:ec:43:b0:b2:2f:90:a8:9e:d4:31:48:0b:a5:13:67:
         a4:98:b7:16:98:6f:00:f3:b3:3d:b2:e9:3d:87:af:77:a1:2d:
         9b:4e:10:e7:f7:03:bd:97:46:1d:c4:ba:5f:78:53:21:94:6f:
         2a:a0:b2:17:10:78:2a:51:45:1b:22:44:50:e6:76:2a:06:9b:
         db:6a:b0:4b:25:5f:3d:13:98:0a:18:a9:cc:7c:5c:e9:32:45:
         b8:89:2f:61:26:79:6e:38:3f:f2:8e:bb:23:85:51:ee:7c:12:
         7a:8e:cd:4d
-----BEGIN CERTIFICATE-----
MIIEDzCCAvegAwIBAgIEEAAA1zANBgkqhkiG9w0BAQsFADBEMQswCQYDVQQGEwJE
RTEPMA0GA1UECAwGSGVzc2VuMRQwEgYDVQQKDAtwcml2YWN5aWRlYTEOMAwGA1UE
AwwFQ0EwMDEwHhcNMTkwODE5MTQwNjUxWhcNMjAwODE4MTQwNjUxWjA9MSUwIwYD
VQQDDBxzZWxmc2VydmljZSxDTj11c2VyLE89cmVhbG0xMRQwEgYJKoZIhvcNAQkB
FgVtZWluZTCCASIwDQYJKoZIhvcNAQEBBQADggEPADCCAQoCggEBAM881DMOEsTm
2s22VqEcJrsmHIpKc6hYirYes4uZ0h0HwpKJecBp2MjfKGGYHrP+riu9eKn3bkfc
o6AWjIUCwU6S/XJu8MgDKZu4AG7Ag5XINCA2nLPl5OZ2c6MarUCW4FNUAOx2eZrG
DX62vSnsg/PLiaTLbAC6DMV4D/9puJT0BHBDP9ie16f7Xc51jtrnxAexnd5viEu2
TZrP+bz6n80ybfY6Cw0jQnjsl0K/Dk1gVuHTAvIZy4RXkOVwoaKDNYbi2oaf+YrE
ebNSKNrLuzTK09qRSs+NdqKya5v5lv0JKtoRI03wy9aysQ4SbJoZZZiHyuTuJM5E
rJCPnRvFKp0CAwEAAaOCAQ4wggEKMAsGA1UdDwQEAwIFoDAJBgNVHRMEAjAAMBEG
CWCGSAGG+EIBAQQEAwIGQDAzBglghkgBhvhCAQ0EJhYkT3BlblNTTCBHZW5lcmF0
ZWQgU2VydmVyIENlcnRpZmljYXRlMB0GA1UdDgQWBBRNB5Ct/x0N5xrd1i76ujTL
qh8kxjB0BgNVHSMEbTBrgBT0p8DMkUavZPOR8if4yLJviocyc6FIpEYwRDELMAkG
A1UEBhMCREUxDzANBgNVBAgMBkhlc3NlbjEUMBIGA1UECgwLcHJpdmFjeWlkZWEx
DjAMBgNVBAMMBUNBMDAxggkA+8jrrIPNEgcwEwYDVR0lBAwwCgYIKwYBBQUHAwEw
DQYJKoZIhvcNAQELBQADggEBAEVMnWK3UYTK/DGplQJVyOB9lIi5z/5I2t+n0akg
PO8PLjYlh/Co5hYXzK9k1eP1UkZp/8gB322ZqE8ZvqnBzRx8y4pH65noZ/HYoMQU
IE/T6ly20rN9pPeMiQzX/oXCkF5UHYW9nZ1KX5/IHkWN09LjJXBNpL8P6HJdiAE0
/BWGtju8YPw1COsLuPeEDlyRmoqpR+xDsLIvkKie1DFIC6UTZ6SYtxaYbwDzsz2y
6T2Hr3ehLZtOEOf3A72XRh3Eul94UyGUbyqgshcQeCpRRRsiRFDmdioGm9tqsEsl
Xz0TmAoYqcx8XOkyRbiJL2EmeW44P/KOuyOFUe58EnqOzU0=
-----END CERTIFICATE-----
