Certificate:
    Data:
        Version: 3 (0x2)
        Serial Number: 268435678 (0x100000de)
        Signature Algorithm: sha256WithRSAEncryption
        Issuer: C=DE, ST=Hessen, O=privacyidea, CN=CA001
        Validity
            Not Before: Aug 16 15:13:58 2019 GMT
            Not After : Aug 15 15:13:58 2020 GMT
        Subject: CN=selfservice,CN=user,O=realm1/emailAddress=meine
        Subject Public Key Info:
            Public Key Algorithm: rsaEncryption
                RSA Public-Key: (2048 bit)
                Modulus:
                    00:cf:3c:d4:33:0e:12:c4:e6:da:cd:b6:56:a1:1c:
                    26:bb:26:1c:8a:4a:73:a8:58:8a:b6:1e:b3:8b:99:
                    d2:1d:07:c2:92:89:79:c0:69:d8:c8:df:28:61:98:
                    1e:b3:fe:ae:2b:bd:78:a9:f7:6e:47:dc:a3:a0:16:
                    8c:85:02:c1:4e:92:fd:72:6e:f0:c8:03:29:9b:b8:
                    00:6e:c0:83:95:c8:34:20:36:9c:b3:e5:e4:e6:76:
                    73:a3:1a:ad:40:96:e0:53:54:00:ec:76:79:9a:c6:
                    0d:7e:b6:bd:29:ec:83:f3:cb:89:a4:cb:6c:00:ba:
                    0c:c5:78:0f:ff:69:b8:94:f4:04:70:43:3f:d8:9e:
                    d7:a7:fb:5d:ce:75:8e:da:e7:c4:07:b1:9d:de:6f:
                    88:4b:b6:4d:9a:cf:f9:bc:fa:9f:cd:32:6d:f6:3a:
                    0b:0d:23:42:78:ec:97:42:bf:0e:4d:60:56:e1:d3:
                    02:f2:19:cb:84:57:90:e5:70:a1:a2:83:35:86:e2:
                    da:86:9f:f9:8a:c4:79:b3:52:28:da:cb:bb:34:ca:
                    d3:da:91:4a:cf:8d:76:a2:b2:6b:9b:f9:96:fd:09:
                    2a:da:11:23:4d:f0:cb:d6:b2:b1:0e:12:6c:9a:19:
                    65:98:87:ca:e4:ee:24:ce:44:ac:90:8f:9d:1b:c5:
                    2a:9d
                Exponent: 65537 (0x10001)
        X509v3 extensions:
            X509v3 Key Usage: 
                Digital Signature, Key Encipherment
            X509v3 Basic Constraints: 
                CA:FALSE
            Netscape Cert Type: 
                SSL Server
            Netscape Comment: 
                OpenSSL Generated Server Certificate
            X509v3 Subject Key Identifier: 
                4D:07:90:AD:FF:1D:0D:E7:1A:DD:D6:2E:FA:BA:34:CB:AA:1F:24:C6
            X509v3 Authority Key Identifier: 
                keyid:F4:A7:C0:CC:91:46:AF:64:F3:91:F2:27:F8:C8:B2:6F:8A:87:32:73
                DirName:/C=DE/ST=Hessen/O=privacyidea/CN=CA001
                serial:FB:C8:EB:AC:83:CD:12:07

            X509v3 Extended Key Usage: 
                TLS Web Server Authentication
    Signature Algorithm: sha256WithRSAEncryption
         2c:55:e3:c5:93:b4:3a:ad:f0:96:54:a5:27:1c:6f:12:3e:ee:
         c1:05:6f:16:01:63:e6:cc:99:a9:57:eb:83:0d:83:15:3f:85:
         87:6e:76:54:0a:d2:a5:85:c1:3d:25:ff:d8:0f:16:b1:29:75:
         c8:ee:e0:0c:35:d9:fa:bc:bb:c5:44:61:a7:0a:96:36:3a:1d:
         06:37:27:73:2e:e1:ef:33:55:85:0c:88:b2:63:40:2b:b6:62:
         bc:77:d2:d5:56:a1:e6:e3:23:3e:a4:d9:0a:b2:ea:87:85:e5:
         62:94:00:0c:46:ef:0c:da:9b:bc:cc:e0:fc:83:39:43:cf:92:
         f2:4b:bc:2d:b4:8f:c8:6e:39:46:91:33:ce:4c:0e:88:77:fe:
         9c:b7:72:f2:33:be:54:4a:42:1a:fe:2c:e1:78:db:00:eb:99:
         18:33:af:02:c2:73:89:ca:7c:ec:5a:00:e2:63:fe:c7:02:a9:
         7d:9e:c6:14:6e:9a:43:bd:dd:3d:4f:e1:86:c9:40:d9:83:f0:
         96:b8:9a:af:7d:86:39:2f:56:5c:d9:b8:60:b9:fa:74:c7:6a:
         a2:8e:7d:0a:ef:c9:94:57:8c:6b:10:8a:96:11:da:52:7b:44:
         8d:7c:14:36:41:87:d2:2d:a7:2a:d2:64:fd:cf:f2:fb:3a:23:
         81:7b:92:b2
-----BEGIN CERTIFICATE-----
MIIEDzCCAvegAwIBAgIEEAAA3jANBgkqhkiG9w0BAQsFADBEMQswCQYDVQQGEwJE
RTEPMA0GA1UECAwGSGVzc2VuMRQwEgYDVQQKDAtwcml2YWN5aWRlYTEOMAwGA1UE
AwwFQ0EwMDEwHhcNMTkwODE2MTUxMzU4WhcNMjAwODE1MTUxMzU4WjA9MSUwIwYD
VQQDDBxzZWxmc2VydmljZSxDTj11c2VyLE89cmVhbG0xMRQwEgYJKoZIhvcNAQkB
FgVtZWluZTCCASIwDQYJKoZIhvcNAQEBBQADggEPADCCAQoCggEBAM881DMOEsTm
2s22VqEcJrsmHIpKc6hYirYes4uZ0h0HwpKJecBp2MjfKGGYHrP+riu9eKn3bkfc
o6AWjIUCwU6S/XJu8MgDKZu4AG7Ag5XINCA2nLPl5OZ2c6MarUCW4FNUAOx2eZrG
DX62vSnsg/PLiaTLbAC6DMV4D/9puJT0BHBDP9ie16f7Xc51jtrnxAexnd5viEu2
TZrP+bz6n80ybfY6Cw0jQnjsl0K/Dk1gVuHTAvIZy4RXkOVwoaKDNYbi2oaf+YrE
ebNSKNrLuzTK09qRSs+NdqKya5v5lv0JKtoRI03wy9aysQ4SbJoZZZiHyuTuJM5E
rJCPnRvFKp0CAwEAAaOCAQ4wggEKMAsGA1UdDwQEAwIFoDAJBgNVHRMEAjAAMBEG
CWCGSAGG+EIBAQQEAwIGQDAzBglghkgBhvhCAQ0EJhYkT3BlblNTTCBHZW5lcmF0
ZWQgU2VydmVyIENlcnRpZmljYXRlMB0GA1UdDgQWBBRNB5Ct/x0N5xrd1i76ujTL
qh8kxjB0BgNVHSMEbTBrgBT0p8DMkUavZPOR8if4yLJviocyc6FIpEYwRDELMAkG
A1UEBhMCREUxDzANBgNVBAgMBkhlc3NlbjEUMBIGA1UECgwLcHJpdmFjeWlkZWEx
DjAMBgNVBAMMBUNBMDAxggkA+8jrrIPNEgcwEwYDVR0lBAwwCgYIKwYBBQUHAwEw
DQYJKoZIhvcNAQELBQADggEBACxV48WTtDqt8JZUpSccbxI+7sEFbxYBY+bMmalX
64MNgxU/hYdudlQK0qWFwT0l/9gPFrEpdcju4Aw12fq8u8VEYacKljY6HQY3J3Mu
4e8zVYUMiLJjQCu2Yrx30tVWoebjIz6k2Qqy6oeF5WKUAAxG7wzam7zM4PyDOUPP
kvJLvC20j8huOUaRM85MDoh3/py3cvIzvlRKQhr+LOF42wDrmRgzrwLCc4nKfOxa
AOJj/scCqX2exhRumkO93T1P4YbJQNmD8Ja4mq99hjkvVlzZuGC5+nTHaqKOfQrv
yZRXjGsQipYR2lJ7RI18FDZBh9ItpyrSZP3P8vs6I4F7krI=
-----END CERTIFICATE-----
