Certificate:
    Data:
        Version: 3 (0x2)
        Serial Number: 268435670 (0x100000d6)
        Signature Algorithm: sha256WithRSAEncryption
        Issuer: C=DE, ST=Hessen, O=privacyidea, CN=CA001
        Validity
            Not Before: Aug 19 14:05:17 2019 GMT
            Not After : Aug 18 14:05:17 2020 GMT
        Subject: OU=realm1, CN=cornelius/emailAddress=user@localhost.localdomain
        Subject Public Key Info:
            Public Key Algorithm: rsaEncryption
                RSA Public-Key: (2048 bit)
                Modulus:
                    00:b8:ad:82:11:f4:4d:32:8f:0d:47:f6:4c:40:c4:
                    eb:1e:b4:71:11:50:b3:04:56:47:fa:14:e9:80:80:
                    97:53:08:d8:eb:be:e3:5f:42:7d:19:8e:8f:8b:9a:
                    34:4e:13:27:7f:a9:9b:3e:67:dc:da:50:f8:e2:93:
                    c4:9d:ff:c4:0e:54:14:3f:ed:d7:75:b8:27:01:25:
                    bc:c3:a7:c5:0f:b5:28:9a:28:71:0b:a8:10:86:b3:
                    59:b7:47:e7:2b:f7:a5:dd:1a:83:5b:95:af:f2:da:
                    6c:fc:86:45:e4:5c:f7:75:2e:1f:cd:53:4f:5e:56:
                    da:c3:c8:1f:cc:47:c4:c1:5c:d1:c3:45:86:a6:98:
                    78:61:7e:77:91:02:54:94:19:3d:09:bd:7c:8c:e4:
                    24:01:36:a0:da:66:ac:c1:40:6d:a0:9b:dd:f3:47:
                    a6:19:b3:1a:8e:02:56:72:3f:a4:e4:f2:02:25:aa:
                    0e:df:ae:2e:95:50:84:3d:a3:92:99:37:fe:5d:b2:
                    b8:cc:c5:01:8f:08:32:86:69:d1:1a:a4:b8:ac:03:
                    97:c6:d3:be:b1:1c:21:e1:4c:a4:9e:e5:77:33:41:
                    75:f3:11:d5:fb:46:3b:02:b4:31:44:c2:f7:19:f0:
                    61:31:94:d2:93:a4:33:e9:f4:70:6f:2a:0a:cc:89:
                    34:7d
                Exponent: 65537 (0x10001)
        X509v3 extensions:
            X509v3 Key Usage: 
                Digital Signature, Key Encipherment
            X509v3 Basic Constraints: 
                CA:FALSE
            Netscape Cert Type: 
                SSL Server
            Netscape Comment: 
                OpenSSL Generated Server Certificate
            X509v3 Subject Key Identifier: 
                DB:9D:24:AA:05:24:C4:47:F4:5B:42:9F:98:42:77:FF:42:C5:4A:C4
            X509v3 Authority Key Identifier: 
                keyid:F4:A7:C0:CC:91:46:AF:64:F3:91:F2:27:F8:C8:B2:6F:8A:87:32:73
                DirName:/C=DE/ST=Hessen/O=privacyidea/CN=CA001
                serial:FB:C8:EB:AC:83:CD:12:07

            X509v3 Extended Key Usage: 
                TLS Web Server Authentication
    Signature Algorithm: sha256WithRSAEncryption
         2c:12:ce:be:88:3c:9d:61:6e:34:18:44:6b:8a:99:22:0d:bb:
         2c:55:f9:6c:7b:1f:e5:2e:e4:48:ea:d3:fc:e0:9d:a1:45:35:
         2d:b6:28:1a:ed:cc:0f:c4:90:83:00:5f:09:30:f1:da:2a:e1:
         41:00:19:6c:f6:eb:31:ae:96:4e:eb:fa:79:a6:4a:31:8f:9e:
         19:b9:9b:22:3f:37:4d:de:d2:55:17:29:d4:2b:e0:3b:b2:8c:
         86:0d:e2:2a:55:12:64:23:62:0e:e2:54:39:0e:0a:f4:b6:d6:
         d7:eb:be:d9:18:d5:d8:e2:a1:39:c9:45:cb:2f:59:da:c2:28:
         1f:d6:14:36:8b:e3:4f:89:4b:62:09:aa:c9:22:0f:2d:2d:95:
         b6:2f:6f:bf:3a:58:30:91:7e:99:8b:0d:b5:e2:8b:c6:ae:45:
         89:10:d4:39:34:0a:76:ce:03:bb:da:83:7c:e1:b1:e7:26:0f:
         a1:a3:fb:5c:b1:14:95:90:71:52:bc:9a:f9:2b:76:70:11:fb:
         f4:d7:0c:a6:93:24:d3:28:ba:ad:83:8e:80:f9:37:fb:4a:c0:
         2b:44:94:db:0c:c7:16:a6:87:f0:ac:01:4b:2a:7f:bf:b2:3b:
         9b:59:17:65:fb:55:b3:18:23:4e:38:c5:e8:03:44:a9:5c:3e:
         3b:0f:58:bc
-----BEGIN CERTIFICATE-----
MIIEIjCCAwqgAwIBAgIEEAAA1jANBgkqhkiG9w0BAQsFADBEMQswCQYDVQQGEwJE
RTEPMA0GA1UECAwGSGVzc2VuMRQwEgYDVQQKDAtwcml2YWN5aWRlYTEOMAwGA1UE
AwwFQ0EwMDEwHhcNMTkwODE5MTQwNTE3WhcNMjAwODE4MTQwNTE3WjBQMQ8wDQYD
VQQLDAZyZWFsbTExEjAQBgNVBAMMCWNvcm5lbGl1czEpMCcGCSqGSIb3DQEJARYa
dXNlckBsb2NhbGhvc3QubG9jYWxkb21haW4wggEiMA0GCSqGSIb3DQEBAQUAA4IB
DwAwggEKAoIBAQC4rYIR9E0yjw1H9kxAxOsetHERULMEVkf6FOmAgJdTCNjrvuNf
Qn0Zjo+LmjROEyd/qZs+Z9zaUPjik8Sd/8QOVBQ/7dd1uCcBJbzDp8UPtSiaKHEL
qBCGs1m3R+cr96XdGoNbla/y2mz8hkXkXPd1Lh/NU09eVtrDyB/MR8TBXNHDRYam
mHhhfneRAlSUGT0JvXyM5CQBNqDaZqzBQG2gm93zR6YZsxqOAlZyP6Tk8gIlqg7f
ri6VUIQ9o5KZN/5dsrjMxQGPCDKGadEapLisA5fG076xHCHhTKSe5XczQXXzEdX7
RjsCtDFEwvcZ8GExlNKTpDPp9HBvKgrMiTR9AgMBAAGjggEOMIIBCjALBgNVHQ8E
BAMCBaAwCQYDVR0TBAIwADARBglghkgBhvhCAQEEBAMCBkAwMwYJYIZIAYb4QgEN
BCYWJE9wZW5TU0wgR2VuZXJhdGVkIFNlcnZlciBDZXJ0aWZpY2F0ZTAdBgNVHQ4E
FgQU250kqgUkxEf0W0KfmEJ3/0LFSsQwdAYDVR0jBG0wa4AU9KfAzJFGr2TzkfIn
+Miyb4qHMnOhSKRGMEQxCzAJBgNVBAYTAkRFMQ8wDQYDVQQIDAZIZXNzZW4xFDAS
BgNVBAoMC3ByaXZhY3lpZGVhMQ4wDAYDVQQDDAVDQTAwMYIJAPvI66yDzRIHMBMG
A1UdJQQMMAoGCCsGAQUFBwMBMA0GCSqGSIb3DQEBCwUAA4IBAQAsEs6+iDydYW40
GERripkiDbssVflsex/lLuRI6tP84J2hRTUttiga7cwPxJCDAF8JMPHaKuFBABls
9usxrpZO6/p5pkoxj54ZuZsiPzdN3tJVFynUK+A7soyGDeIqVRJkI2IO4lQ5Dgr0
ttbX677ZGNXY4qE5yUXLL1nawigf1hQ2i+NPiUtiCarJIg8tLZW2L2+/OlgwkX6Z
iw214ovGrkWJENQ5NAp2zgO72oN84bHnJg+ho/tcsRSVkHFSvJr5K3ZwEfv01wym
kyTTKLqtg46A+Tf7SsArRJTbDMcWpofwrAFLKn+/sjubWRdl+1WzGCNOOMXoA0Sp
XD47D1i8
-----END CERTIFICATE-----
