Certificate:
    Data:
        Version: 3 (0x2)
        Serial Number: 268435688 (0x100000e8)
        Signature Algorithm: sha256WithRSAEncryption
        Issuer: C=DE, ST=Hessen, O=privacyidea, CN=CA001
        Validity
            Not Before: Aug 14 19:13:51 2019 GMT
            Not After : Aug 13 19:13:51 2020 GMT
        Subject: CN=selfservice,CN=user,O=realm1/emailAddress=meine
        Subject Public Key Info:
            Public Key Algorithm: rsaEncryption
                RSA Public-Key: (2048 bit)
                Modulus:
                    00:cf:3c:d4:33:0e:12:c4:e6:da:cd:b6:56:a1:1c:
                    26:bb:26:1c:8a:4a:73:a8:58:8a:b6:1e:b3:8b:99:
                    d2:1d:07:c2:92:89:79:c0:69:d8:c8:df:28:61:98:
                    1e:b3:fe:ae:2b:bd:78:a9:f7:6e:47:dc:a3:a0:16:
                    8c:85:02:c1:4e:92:fd:72:6e:f0:c8:03:29:9b:b8:
                    00:6e:c0:83:95:c8:34:20:36:9c:b3:e5:e4:e6:76:
                    73:a3:1a:ad:40:96:e0:53:54:00:ec:76:79:9a:c6:
                    0d:7e:b6:bd:29:ec:83:f3:cb:89:a4:cb:6c:00:ba:
                    0c:c5:78:0f:ff:69:b8:94:f4:04:70:43:3f:d8:9e:
                    d7:a7:fb:5d:ce:75:8e:da:e7:c4:07:b1:9d:de:6f:
                    88:4b:b6:4d:9a:cf:f9:bc:fa:9f:cd:32:6d:f6:3a:
                    0b:0d:23:42:78:ec:97:42:bf:0e:4d:60:56:e1:d3:
                    02:f2:19:cb:84:57:90:e5:70:a1:a2:83:35:86:e2:
                    da:86:9f:f9:8a:c4:79:b3:52:28:da:cb:bb:34:ca:
                    d3:da:91:4a:cf:8d:76:a2:b2:6b:9b:f9:96:fd:09:
                    2a:da:11:23:4d:f0:cb:d6:b2:b1:0e:12:6c:9a:19:
                    65:98:87:ca:e4:ee:24:ce:44:ac:90:8f:9d:1b:c5:
                    2a:9d
                Exponent: 65537 (0x10001)
        X509v3 extensions:
            X509v3 Key Usage: 
                Digital Signature, Key Encipherment
            X509v3 Basic Constraints: 
                CA:FALSE
            Netscape Cert Type: 
                SSL Server
            Netscape Comment: 
                OpenSSL Generated Server Certificate
            X509v3 Subject Key Identifier: 
                4D:07:90:AD:FF:1D:0D:E7:1A:DD:D6:2E:FA:BA:34:CB:AA:1F:24:C6
            X509v3 Authority Key Identifier: 
                keyid:F4:A7:C0:CC:91:46:AF:64:F3:91:F2:27:F8:C8:B2:6F:8A:87:32:73
                DirName:/C=DE/ST=Hessen/O=privacyidea/CN=CA001
                serial:FB:C8:EB:AC:83:CD:12:07

            X509v3 Extended Key Usage: 
                TLS Web Server Authentication
    Signature Algorithm: sha256WithRSAEncryption
         60:b3:9c:a6:de:58:a6:76:2f:09:cf:e6:15:78:8b:a9:55:a0:
         a2:a6:ba:66:39:2b:07:57:7a:e6:ec:6a:a9:c1:0f:d8:80:cd:
         17:92:55:26:69:dc:86:dc:83:ce:d2:74:fe:c9:5d:80:ea:40:
         76:45:d9:14:da:ef:3b:c3:8b:54:d9:d7:51:68:7b:2c:e8:56:
         61:17:64:90:19:cd:1b:66:c3:ed:98:48:8f:b6:c2:63:7f:d7:
         8d:99:a9:b1:32:42:0a:bb:ba:0a:a5:20:ca:94:5d:1b:2a:77:
         05:f7:ae:20:bd:ab:74:0e:1e:59:3c:d9:59:14:8d:67:b9:51:
         b2:ce:5c:5e:4b:fd:15:d4:e7:53:53:35:c5:51:e8:19:1f:8b:
         fc:d4:ac:63:1e:7a:20:81:23:f0:96:c0:17:69:92:68:9c:f4:
         df:c8:f3:ea:2c:d7:be:6b:9b:04:c9:83:dd:84:c4:a0:83:d1:
         6f:7d:8d:71:3c:64:f6:97:46:17:09:05:38:71:c4:9a:b2:12:
         20:7a:d9:eb:4d:96:f4:9d:de:9f:6a:ee:51:22:5d:78:bb:b3:
         bd:92:9a:13:0a:b0:f7:90:55:52:56:75:0a:00:fe:aa:84:5a:
         af:4f:67:30:cf:f2:11:4e:ca:5b:a6:89:7a:8b:bf:cf:16:38:
         bc:4d:3a:83
-----BEGIN CERTIFICATE-----
MIIEDzCCAvegAwIBAgIEEAAA6DANBgkqhkiG9w0BAQsFADBEMQswCQYDVQQGEwJE
RTEPMA0GA1UECAwGSGVzc2VuMRQwEgYDVQQKDAtwcml2YWN5aWRlYTEOMAwGA1UE
AwwFQ0EwMDEwHhcNMTkwODE0MTkxMzUxWhcNMjAwODEzMTkxMzUxWjA9MSUwIwYD
VQQDDBxzZWxmc2VydmljZSxDTj11c2VyLE89cmVhbG0xMRQwEgYJKoZIhvcNAQkB
FgVtZWluZTCCASIwDQYJKoZIhvcNAQEBBQADggEPADCCAQoCggEBAM881DMOEsTm
2s22VqEcJrsmHIpKc6hYirYes4uZ0h0HwpKJecBp2MjfKGGYHrP+riu9eKn3bkfc
o6AWjIUCwU6S/XJu8MgDKZu4AG7Ag5XINCA2nLPl5OZ2c6MarUCW4FNUAOx2eZrG
DX62vSnsg/PLiaTLbAC6DMV4D/9puJT0BHBDP9ie16f7Xc51jtrnxAexnd5viEu2
TZrP+bz6n80ybfY6Cw0jQnjsl0K/Dk1gVuHTAvIZy4RXkOVwoaKDNYbi2oaf+YrE
ebNSKNrLuzTK09qRSs+NdqKya5v5lv0JKtoRI03wy9aysQ4SbJoZZZiHyuTuJM5E
rJCPnRvFKp0CAwEAAaOCAQ4wggEKMAsGA1UdDwQEAwIFoDAJBgNVHRMEAjAAMBEG
CWCGSAGG+EIBAQQEAwIGQDAzBglghkgBhvhCAQ0EJhYkT3BlblNTTCBHZW5lcmF0
ZWQgU2VydmVyIENlcnRpZmljYXRlMB0GA1UdDgQWBBRNB5Ct/x0N5xrd1i76ujTL
qh8kxjB0BgNVHSMEbTBrgBT0p8DMkUavZPOR8if4yLJviocyc6FIpEYwRDELMAkG
A1UEBhMCREUxDzANBgNVBAgMBkhlc3NlbjEUMBIGA1UECgwLcHJpdmFjeWlkZWEx
DjAMBgNVBAMMBUNBMDAxggkA+8jrrIPNEgcwEwYDVR0lBAwwCgYIKwYBBQUHAwEw
DQYJKoZIhvcNAQELBQADggEBAGCznKbeWKZ2LwnP5hV4i6lVoKKmumY5KwdXeubs
aqnBD9iAzReSVSZp3Ibcg87SdP7JXYDqQHZF2RTa7zvDi1TZ11FoeyzoVmEXZJAZ
zRtmw+2YSI+2wmN/142ZqbEyQgq7ugqlIMqUXRsqdwX3riC9q3QOHlk82VkUjWe5
UbLOXF5L/RXU51NTNcVR6Bkfi/zUrGMeeiCBI/CWwBdpkmic9N/I8+os175rmwTJ
g92ExKCD0W99jXE8ZPaXRhcJBThxxJqyEiB62etNlvSd3p9q7lEiXXi7s72SmhMK
sPeQVVJWdQoA/qqEWq9PZzDP8hFOylumiXqLv88WOLxNOoM=
-----END CERTIFICATE-----
