Certificate:
    Data:
        Version: 3 (0x2)
        Serial Number: 268435673 (0x100000d9)
        Signature Algorithm: sha256WithRSAEncryption
        Issuer: C=DE, ST=Hessen, O=privacyidea, CN=CA001
        Validity
            Not Before: Aug 16 15:10:34 2019 GMT
            Not After : Aug 15 15:10:34 2020 GMT
        Subject: C=DE, ST=Hessen, O=privacyidea, CN=usercert
        Subject Public Key Info:
            Public Key Algorithm: rsaEncryption
                RSA Public-Key: (2048 bit)
                Modulus:
                    00:dc:2f:d1:5f:29:97:d4:7c:c3:53:c8:30:bd:4b:
                    67:70:2c:24:6b:b8:5e:eb:21:7a:48:12:56:7c:81:
                    5c:48:75:b6:68:eb:f6:f2:98:4e:50:51:d1:7f:6c:
                    73:f3:0a:a7:ae:be:48:5e:e5:d6:e1:d9:2a:7c:32:
                    6e:4e:fd:08:f6:5a:54:49:23:73:c3:b9:07:18:d1:
                    ef:b3:ac:f8:8a:dc:94:96:a4:90:3a:8e:74:df:e6:
                    0d:37:1b:bd:5b:b7:25:1a:56:39:da:6f:91:aa:5e:
                    1c:74:f3:f9:7c:14:01:83:12:65:76:c7:bb:fe:36:
                    5b:95:e9:72:65:83:ed:3e:98:30:71:fa:87:dd:a3:
                    36:5a:30:03:2e:26:e0:61:d1:bf:02:3f:b6:06:1f:
                    4a:89:28:1c:5c:a2:ff:4e:be:94:e6:8c:e0:da:82:
                    f1:9d:29:32:48:30:73:b4:04:f6:42:1e:be:f7:e2:
                    32:32:27:3c:9d:89:2f:70:3e:85:9a:6f:5c:c5:09:
                    c0:8c:32:2f:72:22:c9:d2:95:1f:b6:ac:72:60:72:
                    b7:82:4d:6b:ce:5b:e3:00:d0:d2:2f:58:c6:e0:10:
                    e5:51:ca:4d:3b:2e:e6:7e:ab:84:d6:56:f1:93:35:
                    a0:93:64:26:81:75:2f:91:b5:16:06:38:0b:db:cc:
                    2d:07
                Exponent: 65537 (0x10001)
        X509v3 extensions:
            X509v3 Key Usage: 
                Digital Signature, Key Encipherment
            X509v3 Basic Constraints: 
                CA:FALSE
            Netscape Cert Type: 
                SSL Server
            Netscape Comment: 
                OpenSSL Generated Server Certificate
            X509v3 Subject Key Identifier: 
                FC:14:D1:F0:4B:8D:00:90:F2:F5:B8:71:9E:4E:97:C3:92:54:AD:0B
            X509v3 Authority Key Identifier: 
                keyid:F4:A7:C0:CC:91:46:AF:64:F3:91:F2:27:F8:C8:B2:6F:8A:87:32:73
                DirName:/C=DE/ST=Hessen/O=privacyidea/CN=CA001
                serial:FB:C8:EB:AC:83:CD:12:07

            X509v3 Extended Key Usage: 
                TLS Web Server Authentication
    Signature Algorithm: sha256WithRSAEncryption
         91:3e:1c:8d:c2:13:ef:84:eb:cb:f7:01:92:ed:33:79:26:6d:
         b6:a3:99:76:16:7d:f4:15:83:0b:0a:4c:8a:53:84:49:6c:17:
         c4:9c:44:39:f8:c3:85:dc:2d:2c:c5:27:1e:e9:34:00:59:3b:
         93:f3:4a:0b:01:43:ad:e7:7f:13:e7:c0:c5:7e:71:92:d9:6c:
         2e:74:77:aa:ca:fc:01:c3:d0:02:b5:e1:70:9d:bc:3d:38:5a:
         48:b1:b5:6d:6e:e1:4e:94:79:85:d5:d2:d1:c6:c9:af:41:6e:
         74:80:ee:01:1d:b4:f1:8a:ab:8a:d9:1d:01:ce:5d:ee:36:73:
         30:28:c4:d0:63:d1:ec:bc:d0:6b:fb:9d:ed:67:1d:e3:dd:0c:
         d4:6f:d4:d7:3e:8b:de:59:c7:89:dd:c1:58:81:a0:e5:e5:8e:
         e9:19:65:8e:fd:b3:4e:5d:89:48:bb:58:72:1e:b4:d4:3a:e9:
         b0:15:50:1b:f7:f4:24:65:43:13:22:57:fa:c5:d0:e8:50:db:
         33:bf:c5:61:bd:eb:ff:21:0a:68:33:81:64:8f:ff:41:e0:5c:
         b0:2b:a1:fa:60:7a:f4:54:6a:42:c3:87:7d:20:ca:5b:18:59:
         e0:e5:b1:08:84:2f:18:4c:17:0e:03:d6:69:5b:b2:fc:6c:2d:
         e9:3e:91:7d
-----BEGIN CERTIFICATE-----
MIIEGTCCAwGgAwIBAgIEEAAA2TANBgkqhkiG9w0BAQsFADBEMQswCQYDVQQGEwJE
RTEPMA0GA1UECAwGSGVzc2VuMRQwEgYDVQQKDAtwcml2YWN5aWRlYTEOMAwGA1UE
AwwFQ0EwMDEwHhcNMTkwODE2MTUxMDM0WhcNMjAwODE1MTUxMDM0WjBHMQswCQYD
VQQGEwJERTEPMA0GA1UECAwGSGVzc2VuMRQwEgYDVQQKDAtwcml2YWN5aWRlYTER
MA8GA1UEAwwIdXNlcmNlcnQwggEiMA0GCSqGSIb3DQEBAQUAA4IBDwAwggEKAoIB
AQDcL9FfKZfUfMNTyDC9S2dwLCRruF7rIXpIElZ8gVxIdbZo6/bymE5QUdF/bHPz
Cqeuvkhe5dbh2Sp8Mm5O/Qj2WlRJI3PDuQcY0e+zrPiK3JSWpJA6jnTf5g03G71b
tyUaVjnab5GqXhx08/l8FAGDEmV2x7v+NluV6XJlg+0+mDBx+ofdozZaMAMuJuBh
0b8CP7YGH0qJKBxcov9OvpTmjODagvGdKTJIMHO0BPZCHr734jIyJzydiS9wPoWa
b1zFCcCMMi9yIsnSlR+2rHJgcreCTWvOW+MA0NIvWMbgEOVRyk07LuZ+q4TWVvGT
NaCTZCaBdS+RtRYGOAvbzC0HAgMBAAGjggEOMIIBCjALBgNVHQ8EBAMCBaAwCQYD
VR0TBAIwADARBglghkgBhvhCAQEEBAMCBkAwMwYJYIZIAYb4QgENBCYWJE9wZW5T
U0wgR2VuZXJhdGVkIFNlcnZlciBDZXJ0aWZpY2F0ZTAdBgNVHQ4EFgQU/BTR8EuN
AJDy9bhxnk6Xw5JUrQswdAYDVR0jBG0wa4AU9KfAzJFGr2TzkfIn+Miyb4qHMnOh
SKRGMEQxCzAJBgNVBAYTAkRFMQ8wDQYDVQQIDAZIZXNzZW4xFDASBgNVBAoMC3By
aXZhY3lpZGVhMQ4wDAYDVQQDDAVDQTAwMYIJAPvI66yDzRIHMBMGA1UdJQQMMAoG
CCsGAQUFBwMBMA0GCSqGSIb3DQEBCwUAA4IBAQCRPhyNwhPvhOvL9wGS7TN5Jm22
o5l2Fn30FYMLCkyKU4RJbBfEnEQ5+MOF3C0sxSce6TQAWTuT80oLAUOt538T58DF
fnGS2WwudHeqyvwBw9ACteFwnbw9OFpIsbVtbuFOlHmF1dLRxsmvQW50gO4BHbTx
iquK2R0Bzl3uNnMwKMTQY9HsvNBr+53tZx3j3QzUb9TXPoveWceJ3cFYgaDl5Y7p
GWWO/bNOXYlIu1hyHrTUOumwFVAb9/QkZUMTIlf6xdDoUNszv8Vhvev/IQpoM4Fk
j/9B4FywK6H6YHr0VGpCw4d9IMpbGFng5bEIhC8YTBcOA9ZpW7L8bC3pPpF9
-----END CERTIFICATE-----
