Certificate:
    Data:
        Version: 3 (0x2)
        Serial Number: 268435666 (0x100000d2)
        Signature Algorithm: sha256WithRSAEncryption
        Issuer: C=DE, ST=Hessen, O=privacyidea, CN=CA001
        Validity
            Not Before: Aug 19 14:03:03 2019 GMT
            Not After : Aug 18 14:03:03 2020 GMT
        Subject: C=DE, ST=Hessen, O=privacyidea, CN=usercert
        Subject Public Key Info:
            Public Key Algorithm: rsaEncryption
                RSA Public-Key: (2048 bit)
                Modulus:
                    00:dc:2f:d1:5f:29:97:d4:7c:c3:53:c8:30:bd:4b:
                    67:70:2c:24:6b:b8:5e:eb:21:7a:48:12:56:7c:81:
                    5c:48:75:b6:68:eb:f6:f2:98:4e:50:51:d1:7f:6c:
                    73:f3:0a:a7:ae:be:48:5e:e5:d6:e1:d9:2a:7c:32:
                    6e:4e:fd:08:f6:5a:54:49:23:73:c3:b9:07:18:d1:
                    ef:b3:ac:f8:8a:dc:94:96:a4:90:3a:8e:74:df:e6:
                    0d:37:1b:bd:5b:b7:25:1a:56:39:da:6f:91:aa:5e:
                    1c:74:f3:f9:7c:14:01:83:12:65:76:c7:bb:fe:36:
                    5b:95:e9:72:65:83:ed:3e:98:30:71:fa:87:dd:a3:
                    36:5a:30:03:2e:26:e0:61:d1:bf:02:3f:b6:06:1f:
                    4a:89:28:1c:5c:a2:ff:4e:be:94:e6:8c:e0:da:82:
                    f1:9d:29:32:48:30:73:b4:04:f6:42:1e:be:f7:e2:
                    32:32:27:3c:9d:89:2f:70:3e:85:9a:6f:5c:c5:09:
                    c0:8c:32:2f:72:22:c9:d2:95:1f:b6:ac:72:60:72:
                    b7:82:4d:6b:ce:5b:e3:00:d0:d2:2f:58:c6:e0:10:
                    e5:51:ca:4d:3b:2e:e6:7e:ab:84:d6:56:f1:93:35:
                    a0:93:64:26:81:75:2f:91:b5:16:06:38:0b:db:cc:
                    2d:07
                Exponent: 65537 (0x10001)
        X509v3 extensions:
            X509v3 Key Usage: 
                Digital Signature, Key Encipherment
            X509v3 Basic Constraints: 
                CA:FALSE
            Netscape Cert Type: 
                SSL Server
            Netscape Comment: 
                OpenSSL Generated Server Certificate
            X509v3 Subject Key Identifier: 
                FC:14:D1:F0:4B:8D:00:90:F2:F5:B8:71:9E:4E:97:C3:92:54:AD:0B
            X509v3 Authority Key Identifier: 
                keyid:F4:A7:C0:CC:91:46:AF:64:F3:91:F2:27:F8:C8:B2:6F:8A:87:32:73
                DirName:/C=DE/ST=Hessen/O=privacyidea/CN=CA001
                serial:FB:C8:EB:AC:83:CD:12:07

            X509v3 Extended Key Usage: 
                TLS Web Server Authentication
    Signature Algorithm: sha256WithRSAEncryption
         62:87:40:1b:09:89:71:60:e3:9e:b9:ff:96:dc:b3:98:42:c6:
         31:87:59:e4:a0:48:18:fc:53:15:21:b8:6c:13:4e:37:55:6f:
         8f:91:38:18:c3:f2:63:4d:ac:97:fe:ca:94:29:96:ff:bf:31:
         ca:19:17:9a:e5:a0:56:04:d5:1c:59:10:29:a1:f5:76:70:1d:
         61:6c:da:a4:3e:8e:01:a7:a7:67:93:4d:c4:a3:d4:d0:94:9f:
         be:53:2e:9b:cd:8d:9f:f8:22:e0:a3:bd:fa:03:36:53:1c:df:
         ed:f2:d0:b2:54:bd:e1:c7:30:84:a3:7f:b3:79:d4:82:b9:94:
         9f:32:c8:05:25:a0:1e:31:71:cf:ee:de:73:78:31:46:46:9d:
         a5:2f:12:37:da:ca:4b:59:77:5a:91:51:ec:79:26:80:8c:86:
         3b:a1:66:a4:10:13:c5:9b:93:ef:e7:79:94:a8:04:e6:e7:99:
         1d:d0:05:a9:34:38:f7:52:80:18:42:ca:7f:37:69:2b:f5:a9:
         31:1e:8c:6b:7f:c6:7b:c3:39:85:f6:97:43:26:d7:74:ad:1d:
         7a:8c:a9:ea:7f:af:7a:aa:d0:ab:a5:df:cb:af:5f:fe:9e:70:
         be:0a:90:c2:49:13:4e:be:14:ce:e1:8b:ec:8a:99:a2:5a:e7:
         bc:bb:99:91
-----BEGIN CERTIFICATE-----
MIIEGTCCAwGgAwIBAgIEEAAA0jANBgkqhkiG9w0BAQsFADBEMQswCQYDVQQGEwJE
RTEPMA0GA1UECAwGSGVzc2VuMRQwEgYDVQQKDAtwcml2YWN5aWRlYTEOMAwGA1UE
AwwFQ0EwMDEwHhcNMTkwODE5MTQwMzAzWhcNMjAwODE4MTQwMzAzWjBHMQswCQYD
VQQGEwJERTEPMA0GA1UECAwGSGVzc2VuMRQwEgYDVQQKDAtwcml2YWN5aWRlYTER
MA8GA1UEAwwIdXNlcmNlcnQwggEiMA0GCSqGSIb3DQEBAQUAA4IBDwAwggEKAoIB
AQDcL9FfKZfUfMNTyDC9S2dwLCRruF7rIXpIElZ8gVxIdbZo6/bymE5QUdF/bHPz
Cqeuvkhe5dbh2Sp8Mm5O/Qj2WlRJI3PDuQcY0e+zrPiK3JSWpJA6jnTf5g03G71b
tyUaVjnab5GqXhx08/l8FAGDEmV2x7v+NluV6XJlg+0+mDBx+ofdozZaMAMuJuBh
0b8CP7YGH0qJKBxcov9OvpTmjODagvGdKTJIMHO0BPZCHr734jIyJzydiS9wPoWa
b1zFCcCMMi9yIsnSlR+2rHJgcreCTWvOW+MA0NIvWMbgEOVRyk07LuZ+q4TWVvGT
NaCTZCaBdS+RtRYGOAvbzC0HAgMBAAGjggEOMIIBCjALBgNVHQ8EBAMCBaAwCQYD
VR0TBAIwADARBglghkgBhvhCAQEEBAMCBkAwMwYJYIZIAYb4QgENBCYWJE9wZW5T
U0wgR2VuZXJhdGVkIFNlcnZlciBDZXJ0aWZpY2F0ZTAdBgNVHQ4EFgQU/BTR8EuN
AJDy9bhxnk6Xw5JUrQswdAYDVR0jBG0wa4AU9KfAzJFGr2TzkfIn+Miyb4qHMnOh
SKRGMEQxCzAJBgNVBAYTAkRFMQ8wDQYDVQQIDAZIZXNzZW4xFDASBgNVBAoMC3By
aXZhY3lpZGVhMQ4wDAYDVQQDDAVDQTAwMYIJAPvI66yDzRIHMBMGA1UdJQQMMAoG
CCsGAQUFBwMBMA0GCSqGSIb3DQEBCwUAA4IBAQBih0AbCYlxYOOeuf+W3LOYQsYx
h1nkoEgY/FMVIbhsE043VW+PkTgYw/JjTayX/sqUKZb/vzHKGRea5aBWBNUcWRAp
ofV2cB1hbNqkPo4Bp6dnk03Eo9TQlJ++Uy6bzY2f+CLgo736AzZTHN/t8tCyVL3h
xzCEo3+zedSCuZSfMsgFJaAeMXHP7t5zeDFGRp2lLxI32spLWXdakVHseSaAjIY7
oWakEBPFm5Pv53mUqATm55kd0AWpNDj3UoAYQsp/N2kr9akxHoxrf8Z7wzmF9pdD
Jtd0rR16jKnqf696qtCrpd/Lr1/+nnC+CpDCSRNOvhTO4YvsipmiWue8u5mR
-----END CERTIFICATE-----
