Certificate:
    Data:
        Version: 3 (0x2)
        Serial Number: 268435680 (0x100000e0)
        Signature Algorithm: sha256WithRSAEncryption
        Issuer: C=DE, ST=Hessen, O=privacyidea, CN=CA001
        Validity
            Not Before: Aug 15 09:25:29 2019 GMT
            Not After : Aug 14 09:25:29 2020 GMT
        Subject: C=DE, ST=Hessen, O=privacyidea, CN=requester.localdomain
        Subject Public Key Info:
            Public Key Algorithm: rsaEncryption
                RSA Public-Key: (2048 bit)
                Modulus:
                    00:cd:be:14:4f:fa:ce:01:3f:42:22:1b:1d:9c:af:
                    dd:92:d2:7f:db:6c:b7:3e:39:43:43:6b:13:03:f1:
                    05:f4:07:74:bc:76:69:28:0b:af:19:8e:d7:fc:e3:
                    cd:c6:58:f2:ca:7f:08:6d:53:fc:07:02:44:24:c6:
                    b4:34:4c:8c:04:fe:33:0e:40:e2:20:ba:02:73:5a:
                    f7:f5:4f:63:6e:cc:c6:b6:df:54:1d:37:39:7d:51:
                    36:26:5f:bd:dc:3f:a8:8b:6b:a2:ae:b6:9d:d6:21:
                    e7:df:41:b8:7a:28:2a:68:48:ca:a8:2d:ed:e1:e9:
                    46:5e:5a:72:6d:b4:84:38:87:91:fd:94:11:0b:28:
                    84:c6:c2:2f:2a:fb:01:f9:36:7a:09:75:d1:33:88:
                    3c:73:41:5b:c8:bf:94:89:70:a1:f0:c0:b9:2e:50:
                    53:1e:b1:17:64:69:f4:2d:81:e0:a9:0d:0e:32:e9:
                    ba:55:8a:85:f1:1b:6f:49:79:b4:7f:88:c3:0d:3e:
                    54:88:9b:3d:1f:38:8c:04:f3:ee:6a:63:2b:f5:c6:
                    db:b4:83:aa:c4:78:41:3a:7d:4b:e1:c8:3e:71:ca:
                    1b:61:59:ea:c6:c4:ca:32:5e:c9:e9:bf:12:29:e6:
                    c6:c3:63:fe:a0:55:da:7a:f1:60:98:4d:26:ed:fa:
                    70:2d
                Exponent: 65537 (0x10001)
        X509v3 extensions:
            X509v3 Key Usage: 
                Digital Signature, Key Encipherment
            X509v3 Basic Constraints: 
                CA:FALSE
            Netscape Cert Type: 
                SSL Server
            Netscape Comment: 
                OpenSSL Generated Server Certificate
            X509v3 Subject Key Identifier: 
                53:3F:ED:5D:09:07:B3:65:7B:AB:45:C9:24:5B:09:77:80:0A:96:ED
            X509v3 Authority Key Identifier: 
                keyid:F4:A7:C0:CC:91:46:AF:64:F3:91:F2:27:F8:C8:B2:6F:8A:87:32:73
                DirName:/C=DE/ST=Hessen/O=privacyidea/CN=CA001
                serial:FB:C8:EB:AC:83:CD:12:07

            X509v3 Extended Key Usage: 
                TLS Web Server Authentication
    Signature Algorithm: sha256WithRSAEncryption
         ba:6b:8a:ba:4b:36:1a:0f:a8:cc:26:70:aa:79:af:fc:0f:4a:
         43:d3:49:df:7f:a7:ba:39:07:21:53:63:cb:00:d1:57:7d:15:
         47:d2:d6:b6:6b:f4:2b:de:1c:27:ae:ee:1d:ac:87:68:4c:9a:
         01:2e:12:ae:15:6c:ed:be:23:3e:ee:8c:73:9e:60:0f:cb:81:
         14:38:fc:0d:06:41:e1:d2:12:99:b1:ba:da:f6:70:84:74:f8:
         f7:00:a4:e9:12:93:e2:b5:cc:8c:80:71:d4:c2:4e:92:08:46:
         33:fc:08:cc:d1:45:a7:4d:d2:4a:ed:36:24:e4:8a:e1:89:77:
         dd:c2:28:d4:e2:99:cf:99:be:41:e7:dd:21:72:e4:2b:3e:01:
         8c:20:bd:46:32:72:b3:08:b2:d4:47:c7:5d:b7:70:e3:37:f3:
         6c:1e:21:99:66:9d:04:62:e5:e0:e3:c7:3f:f3:6e:0e:6f:57:
         0e:79:b3:1c:73:a3:89:a1:e6:97:08:22:d0:c5:13:36:5d:8f:
         aa:3f:ac:9a:11:7e:9a:ee:92:3d:3b:26:ec:a1:5e:6f:a9:9b:
         6b:b0:d9:a6:e9:99:89:13:fe:62:28:77:43:70:6e:cc:5a:b2:
         e0:2b:7e:0c:42:d4:8f:53:7a:67:a0:cb:c5:ec:c2:ef:5a:ab:
         80:45:e8:ca
-----BEGIN CERTIFICATE-----
MIIEJjCCAw6gAwIBAgIEEAAA4DANBgkqhkiG9w0BAQsFADBEMQswCQYDVQQGEwJE
RTEPMA0GA1UECAwGSGVzc2VuMRQwEgYDVQQKDAtwcml2YWN5aWRlYTEOMAwGA1UE
AwwFQ0EwMDEwHhcNMTkwODE1MDkyNTI5WhcNMjAwODE0MDkyNTI5WjBUMQswCQYD
VQQGEwJERTEPMA0GA1UECAwGSGVzc2VuMRQwEgYDVQQKDAtwcml2YWN5aWRlYTEe
MBwGA1UEAwwVcmVxdWVzdGVyLmxvY2FsZG9tYWluMIIBIjANBgkqhkiG9w0BAQEF
AAOCAQ8AMIIBCgKCAQEAzb4UT/rOAT9CIhsdnK/dktJ/22y3PjlDQ2sTA/EF9Ad0
vHZpKAuvGY7X/OPNxljyyn8IbVP8BwJEJMa0NEyMBP4zDkDiILoCc1r39U9jbszG
tt9UHTc5fVE2Jl+93D+oi2uirrad1iHn30G4eigqaEjKqC3t4elGXlpybbSEOIeR
/ZQRCyiExsIvKvsB+TZ6CXXRM4g8c0FbyL+UiXCh8MC5LlBTHrEXZGn0LYHgqQ0O
Mum6VYqF8RtvSXm0f4jDDT5UiJs9HziMBPPuamMr9cbbtIOqxHhBOn1L4cg+ccob
YVnqxsTKMl7J6b8SKebGw2P+oFXaevFgmE0m7fpwLQIDAQABo4IBDjCCAQowCwYD
VR0PBAQDAgWgMAkGA1UdEwQCMAAwEQYJYIZIAYb4QgEBBAQDAgZAMDMGCWCGSAGG
+EIBDQQmFiRPcGVuU1NMIEdlbmVyYXRlZCBTZXJ2ZXIgQ2VydGlmaWNhdGUwHQYD
VR0OBBYEFFM/7V0JB7Nle6tFySRbCXeACpbtMHQGA1UdIwRtMGuAFPSnwMyRRq9k
85HyJ/jIsm+KhzJzoUikRjBEMQswCQYDVQQGEwJERTEPMA0GA1UECAwGSGVzc2Vu
MRQwEgYDVQQKDAtwcml2YWN5aWRlYTEOMAwGA1UEAwwFQ0EwMDGCCQD7yOusg80S
BzATBgNVHSUEDDAKBggrBgEFBQcDATANBgkqhkiG9w0BAQsFAAOCAQEAumuKuks2
Gg+ozCZwqnmv/A9KQ9NJ33+nujkHIVNjywDRV30VR9LWtmv0K94cJ67uHayHaEya
AS4SrhVs7b4jPu6Mc55gD8uBFDj8DQZB4dISmbG62vZwhHT49wCk6RKT4rXMjIBx
1MJOkghGM/wIzNFFp03SSu02JOSK4Yl33cIo1OKZz5m+QefdIXLkKz4BjCC9RjJy
swiy1EfHXbdw4zfzbB4hmWadBGLl4OPHP/NuDm9XDnmzHHOjiaHmlwgi0MUTNl2P
qj+smhF+mu6SPTsm7KFeb6mba7DZpumZiRP+Yih3Q3BuzFqy4Ct+DELUj1N6Z6DL
xezC71qrgEXoyg==
-----END CERTIFICATE-----
