Certificate:
    Data:
        Version: 3 (0x2)
        Serial Number: 268435685 (0x100000e5)
        Signature Algorithm: sha256WithRSAEncryption
        Issuer: C=DE, ST=Hessen, O=privacyidea, CN=CA001
        Validity
            Not Before: Aug 15 09:29:08 2019 GMT
            Not After : Aug 14 09:29:08 2020 GMT
        Subject: C=DE, ST=Hessen, O=privacyidea, CN=requester.localdomain
        Subject Public Key Info:
            Public Key Algorithm: rsaEncryption
                RSA Public-Key: (2048 bit)
                Modulus:
                    00:cd:be:14:4f:fa:ce:01:3f:42:22:1b:1d:9c:af:
                    dd:92:d2:7f:db:6c:b7:3e:39:43:43:6b:13:03:f1:
                    05:f4:07:74:bc:76:69:28:0b:af:19:8e:d7:fc:e3:
                    cd:c6:58:f2:ca:7f:08:6d:53:fc:07:02:44:24:c6:
                    b4:34:4c:8c:04:fe:33:0e:40:e2:20:ba:02:73:5a:
                    f7:f5:4f:63:6e:cc:c6:b6:df:54:1d:37:39:7d:51:
                    36:26:5f:bd:dc:3f:a8:8b:6b:a2:ae:b6:9d:d6:21:
                    e7:df:41:b8:7a:28:2a:68:48:ca:a8:2d:ed:e1:e9:
                    46:5e:5a:72:6d:b4:84:38:87:91:fd:94:11:0b:28:
                    84:c6:c2:2f:2a:fb:01:f9:36:7a:09:75:d1:33:88:
                    3c:73:41:5b:c8:bf:94:89:70:a1:f0:c0:b9:2e:50:
                    53:1e:b1:17:64:69:f4:2d:81:e0:a9:0d:0e:32:e9:
                    ba:55:8a:85:f1:1b:6f:49:79:b4:7f:88:c3:0d:3e:
                    54:88:9b:3d:1f:38:8c:04:f3:ee:6a:63:2b:f5:c6:
                    db:b4:83:aa:c4:78:41:3a:7d:4b:e1:c8:3e:71:ca:
                    1b:61:59:ea:c6:c4:ca:32:5e:c9:e9:bf:12:29:e6:
                    c6:c3:63:fe:a0:55:da:7a:f1:60:98:4d:26:ed:fa:
                    70:2d
                Exponent: 65537 (0x10001)
        X509v3 extensions:
            X509v3 Key Usage: 
                Digital Signature, Key Encipherment
            X509v3 Basic Constraints: 
                CA:FALSE
            Netscape Cert Type: 
                SSL Server
            Netscape Comment: 
                OpenSSL Generated Server Certificate
            X509v3 Subject Key Identifier: 
                53:3F:ED:5D:09:07:B3:65:7B:AB:45:C9:24:5B:09:77:80:0A:96:ED
            X509v3 Authority Key Identifier: 
                keyid:F4:A7:C0:CC:91:46:AF:64:F3:91:F2:27:F8:C8:B2:6F:8A:87:32:73
                DirName:/C=DE/ST=Hessen/O=privacyidea/CN=CA001
                serial:FB:C8:EB:AC:83:CD:12:07

            X509v3 Extended Key Usage: 
                TLS Web Server Authentication
    Signature Algorithm: sha256WithRSAEncryption
         67:fc:b3:7b:3c:d3:1c:c0:7b:71:38:11:83:bc:f1:d6:2f:12:
         5d:16:7f:4c:07:00:ed:4f:86:0f:2d:de:67:56:1b:f8:d4:cf:
         c2:18:5f:32:e4:55:91:94:1c:fd:b4:03:70:6d:9f:05:fb:1e:
         de:55:47:c3:a5:b5:3c:2d:e2:3d:2f:58:f0:eb:98:4d:34:02:
         28:28:3a:0a:36:bd:c2:da:af:64:08:61:19:0c:1a:b3:a8:54:
         f8:75:63:40:9d:c1:41:86:62:87:6d:de:49:5e:be:ae:b3:71:
         96:c7:5b:fb:a9:52:df:34:5e:14:bd:ba:c5:83:fd:df:72:90:
         e3:74:8f:4d:f7:e3:47:b2:d1:0f:30:0e:96:39:1e:75:2d:5d:
         56:10:8b:aa:b8:c4:cd:7e:5e:48:6b:de:3e:f9:c6:fe:56:9e:
         d5:9a:35:6b:03:fd:26:36:13:97:b2:90:37:b7:f8:c1:87:fa:
         f4:97:eb:10:59:0a:22:13:6b:c8:6c:c6:9a:65:e0:3d:2d:f7:
         ff:9f:53:58:f5:ea:25:bf:6c:83:65:8d:92:53:31:c9:e7:77:
         b1:45:2e:b4:e9:35:e6:66:ec:6f:5a:f8:42:a9:09:23:da:75:
         74:01:7f:8a:87:62:9b:eb:e9:f1:44:ca:d1:64:3b:c9:3b:a9:
         25:04:33:40
-----BEGIN CERTIFICATE-----
MIIEJjCCAw6gAwIBAgIEEAAA5TANBgkqhkiG9w0BAQsFADBEMQswCQYDVQQGEwJE
RTEPMA0GA1UECAwGSGVzc2VuMRQwEgYDVQQKDAtwcml2YWN5aWRlYTEOMAwGA1UE
AwwFQ0EwMDEwHhcNMTkwODE1MDkyOTA4WhcNMjAwODE0MDkyOTA4WjBUMQswCQYD
VQQGEwJERTEPMA0GA1UECAwGSGVzc2VuMRQwEgYDVQQKDAtwcml2YWN5aWRlYTEe
MBwGA1UEAwwVcmVxdWVzdGVyLmxvY2FsZG9tYWluMIIBIjANBgkqhkiG9w0BAQEF
AAOCAQ8AMIIBCgKCAQEAzb4UT/rOAT9CIhsdnK/dktJ/22y3PjlDQ2sTA/EF9Ad0
vHZpKAuvGY7X/OPNxljyyn8IbVP8BwJEJMa0NEyMBP4zDkDiILoCc1r39U9jbszG
tt9UHTc5fVE2Jl+93D+oi2uirrad1iHn30G4eigqaEjKqC3t4elGXlpybbSEOIeR
/ZQRCyiExsIvKvsB+TZ6CXXRM4g8c0FbyL+UiXCh8MC5LlBTHrEXZGn0LYHgqQ0O
Mum6VYqF8RtvSXm0f4jDDT5UiJs9HziMBPPuamMr9cbbtIOqxHhBOn1L4cg+ccob
YVnqxsTKMl7J6b8SKebGw2P+oFXaevFgmE0m7fpwLQIDAQABo4IBDjCCAQowCwYD
VR0PBAQDAgWgMAkGA1UdEwQCMAAwEQYJYIZIAYb4QgEBBAQDAgZAMDMGCWCGSAGG
+EIBDQQmFiRPcGVuU1NMIEdlbmVyYXRlZCBTZXJ2ZXIgQ2VydGlmaWNhdGUwHQYD
VR0OBBYEFFM/7V0JB7Nle6tFySRbCXeACpbtMHQGA1UdIwRtMGuAFPSnwMyRRq9k
85HyJ/jIsm+KhzJzoUikRjBEMQswCQYDVQQGEwJERTEPMA0GA1UECAwGSGVzc2Vu
MRQwEgYDVQQKDAtwcml2YWN5aWRlYTEOMAwGA1UEAwwFQ0EwMDGCCQD7yOusg80S
BzATBgNVHSUEDDAKBggrBgEFBQcDATANBgkqhkiG9w0BAQsFAAOCAQEAZ/yzezzT
HMB7cTgRg7zx1i8SXRZ/TAcA7U+GDy3eZ1Yb+NTPwhhfMuRVkZQc/bQDcG2fBfse
3lVHw6W1PC3iPS9Y8OuYTTQCKCg6Cja9wtqvZAhhGQwas6hU+HVjQJ3BQYZih23e
SV6+rrNxlsdb+6lS3zReFL26xYP933KQ43SPTffjR7LRDzAOljkedS1dVhCLqrjE
zX5eSGvePvnG/lae1Zo1awP9JjYTl7KQN7f4wYf69JfrEFkKIhNryGzGmmXgPS33
/59TWPXqJb9sg2WNklMxyed3sUUutOk15mbsb1r4QqkJI9p1dAF/iodim+vp8UTK
0WQ7yTupJQQzQA==
-----END CERTIFICATE-----
