Certificate:
    Data:
        Version: 3 (0x2)
        Serial Number: 268435664 (0x100000d0)
        Signature Algorithm: sha256WithRSAEncryption
        Issuer: C=DE, ST=Hessen, O=privacyidea, CN=CA001
        Validity
            Not Before: Aug 19 14:01:34 2019 GMT
            Not After : Aug 18 14:01:34 2020 GMT
        Subject: C=DE, ST=Hessen, O=privacyidea, CN=requester.localdomain
        Subject Public Key Info:
            Public Key Algorithm: rsaEncryption
                RSA Public-Key: (2048 bit)
                Modulus:
                    00:cd:be:14:4f:fa:ce:01:3f:42:22:1b:1d:9c:af:
                    dd:92:d2:7f:db:6c:b7:3e:39:43:43:6b:13:03:f1:
                    05:f4:07:74:bc:76:69:28:0b:af:19:8e:d7:fc:e3:
                    cd:c6:58:f2:ca:7f:08:6d:53:fc:07:02:44:24:c6:
                    b4:34:4c:8c:04:fe:33:0e:40:e2:20:ba:02:73:5a:
                    f7:f5:4f:63:6e:cc:c6:b6:df:54:1d:37:39:7d:51:
                    36:26:5f:bd:dc:3f:a8:8b:6b:a2:ae:b6:9d:d6:21:
                    e7:df:41:b8:7a:28:2a:68:48:ca:a8:2d:ed:e1:e9:
                    46:5e:5a:72:6d:b4:84:38:87:91:fd:94:11:0b:28:
                    84:c6:c2:2f:2a:fb:01:f9:36:7a:09:75:d1:33:88:
                    3c:73:41:5b:c8:bf:94:89:70:a1:f0:c0:b9:2e:50:
                    53:1e:b1:17:64:69:f4:2d:81:e0:a9:0d:0e:32:e9:
                    ba:55:8a:85:f1:1b:6f:49:79:b4:7f:88:c3:0d:3e:
                    54:88:9b:3d:1f:38:8c:04:f3:ee:6a:63:2b:f5:c6:
                    db:b4:83:aa:c4:78:41:3a:7d:4b:e1:c8:3e:71:ca:
                    1b:61:59:ea:c6:c4:ca:32:5e:c9:e9:bf:12:29:e6:
                    c6:c3:63:fe:a0:55:da:7a:f1:60:98:4d:26:ed:fa:
                    70:2d
                Exponent: 65537 (0x10001)
        X509v3 extensions:
            X509v3 Key Usage: 
                Digital Signature, Key Encipherment
            X509v3 Basic Constraints: 
                CA:FALSE
            Netscape Cert Type: 
                SSL Server
            Netscape Comment: 
                OpenSSL Generated Server Certificate
            X509v3 Subject Key Identifier: 
                53:3F:ED:5D:09:07:B3:65:7B:AB:45:C9:24:5B:09:77:80:0A:96:ED
            X509v3 Authority Key Identifier: 
                keyid:F4:A7:C0:CC:91:46:AF:64:F3:91:F2:27:F8:C8:B2:6F:8A:87:32:73
                DirName:/C=DE/ST=Hessen/O=privacyidea/CN=CA001
                serial:FB:C8:EB:AC:83:CD:12:07

            X509v3 Extended Key Usage: 
                TLS Web Server Authentication
    Signature Algorithm: sha256WithRSAEncryption
         24:2e:4e:ea:6c:2d:1b:eb:1a:82:dd:f3:6e:f3:0e:02:ae:57:
         5a:5a:8c:08:05:25:f9:6a:c2:8f:a7:8f:49:1a:45:6f:5b:a4:
         59:53:7d:3f:ad:9c:0e:23:3e:33:65:d9:34:43:84:e2:7b:15:
         e0:cf:a9:87:10:45:3c:a4:b2:68:9e:2c:ee:3b:df:1f:10:e2:
         b6:27:29:9a:6b:9d:a2:6f:15:73:a8:2c:69:55:49:b7:66:89:
         6d:db:bc:7f:c0:7e:46:c2:3a:5d:69:ad:c8:c1:6f:1f:6a:9b:
         f2:04:0c:aa:0a:87:fe:c3:a9:74:ce:5d:44:5e:13:60:76:25:
         54:ae:e8:3d:22:26:e7:2f:29:ad:95:d4:8a:88:d3:3f:1b:1e:
         fb:bf:0f:5f:8b:8b:f1:9f:66:56:c7:8a:89:18:9d:25:6c:11:
         d2:5a:96:83:da:32:a9:f2:ec:d1:b1:74:74:55:51:0a:60:cf:
         ed:98:a5:be:20:7e:67:4c:a4:26:3e:97:60:48:4d:a5:45:7d:
         45:98:14:11:60:ec:c6:18:4a:a3:6f:73:2b:ac:85:5e:04:9b:
         5d:b9:c2:4e:ea:50:c5:cd:86:af:56:3b:6e:7c:47:d5:db:46:
         46:93:49:7e:39:90:32:74:e5:ff:e3:6b:27:5a:5e:90:40:0a:
         eb:16:e7:c1
-----BEGIN CERTIFICATE-----
MIIEJjCCAw6gAwIBAgIEEAAA0DANBgkqhkiG9w0BAQsFADBEMQswCQYDVQQGEwJE
RTEPMA0GA1UECAwGSGVzc2VuMRQwEgYDVQQKDAtwcml2YWN5aWRlYTEOMAwGA1UE
AwwFQ0EwMDEwHhcNMTkwODE5MTQwMTM0WhcNMjAwODE4MTQwMTM0WjBUMQswCQYD
VQQGEwJERTEPMA0GA1UECAwGSGVzc2VuMRQwEgYDVQQKDAtwcml2YWN5aWRlYTEe
MBwGA1UEAwwVcmVxdWVzdGVyLmxvY2FsZG9tYWluMIIBIjANBgkqhkiG9w0BAQEF
AAOCAQ8AMIIBCgKCAQEAzb4UT/rOAT9CIhsdnK/dktJ/22y3PjlDQ2sTA/EF9Ad0
vHZpKAuvGY7X/OPNxljyyn8IbVP8BwJEJMa0NEyMBP4zDkDiILoCc1r39U9jbszG
tt9UHTc5fVE2Jl+93D+oi2uirrad1iHn30G4eigqaEjKqC3t4elGXlpybbSEOIeR
/ZQRCyiExsIvKvsB+TZ6CXXRM4g8c0FbyL+UiXCh8MC5LlBTHrEXZGn0LYHgqQ0O
Mum6VYqF8RtvSXm0f4jDDT5UiJs9HziMBPPuamMr9cbbtIOqxHhBOn1L4cg+ccob
YVnqxsTKMl7J6b8SKebGw2P+oFXaevFgmE0m7fpwLQIDAQABo4IBDjCCAQowCwYD
VR0PBAQDAgWgMAkGA1UdEwQCMAAwEQYJYIZIAYb4QgEBBAQDAgZAMDMGCWCGSAGG
+EIBDQQmFiRPcGVuU1NMIEdlbmVyYXRlZCBTZXJ2ZXIgQ2VydGlmaWNhdGUwHQYD
VR0OBBYEFFM/7V0JB7Nle6tFySRbCXeACpbtMHQGA1UdIwRtMGuAFPSnwMyRRq9k
85HyJ/jIsm+KhzJzoUikRjBEMQswCQYDVQQGEwJERTEPMA0GA1UECAwGSGVzc2Vu
MRQwEgYDVQQKDAtwcml2YWN5aWRlYTEOMAwGA1UEAwwFQ0EwMDGCCQD7yOusg80S
BzATBgNVHSUEDDAKBggrBgEFBQcDATANBgkqhkiG9w0BAQsFAAOCAQEAJC5O6mwt
G+sagt3zbvMOAq5XWlqMCAUl+WrCj6ePSRpFb1ukWVN9P62cDiM+M2XZNEOE4nsV
4M+phxBFPKSyaJ4s7jvfHxDiticpmmudom8Vc6gsaVVJt2aJbdu8f8B+RsI6XWmt
yMFvH2qb8gQMqgqH/sOpdM5dRF4TYHYlVK7oPSIm5y8prZXUiojTPxse+78PX4uL
8Z9mVseKiRidJWwR0lqWg9oyqfLs0bF0dFVRCmDP7ZilviB+Z0ykJj6XYEhNpUV9
RZgUEWDsxhhKo29zK6yFXgSbXbnCTupQxc2Gr1Y7bnxH1dtGRpNJfjmQMnTl/+Nr
J1pekEAK6xbnwQ==
-----END CERTIFICATE-----
