Certificate:
    Data:
        Version: 3 (0x2)
        Serial Number: 268435682 (0x100000e2)
        Signature Algorithm: sha256WithRSAEncryption
        Issuer: C=DE, ST=Hessen, O=privacyidea, CN=CA001
        Validity
            Not Before: Aug 15 09:27:00 2019 GMT
            Not After : Aug 14 09:27:00 2020 GMT
        Subject: C=DE, ST=Hessen, O=privacyidea, CN=usercert
        Subject Public Key Info:
            Public Key Algorithm: rsaEncryption
                RSA Public-Key: (2048 bit)
                Modulus:
                    00:dc:2f:d1:5f:29:97:d4:7c:c3:53:c8:30:bd:4b:
                    67:70:2c:24:6b:b8:5e:eb:21:7a:48:12:56:7c:81:
                    5c:48:75:b6:68:eb:f6:f2:98:4e:50:51:d1:7f:6c:
                    73:f3:0a:a7:ae:be:48:5e:e5:d6:e1:d9:2a:7c:32:
                    6e:4e:fd:08:f6:5a:54:49:23:73:c3:b9:07:18:d1:
                    ef:b3:ac:f8:8a:dc:94:96:a4:90:3a:8e:74:df:e6:
                    0d:37:1b:bd:5b:b7:25:1a:56:39:da:6f:91:aa:5e:
                    1c:74:f3:f9:7c:14:01:83:12:65:76:c7:bb:fe:36:
                    5b:95:e9:72:65:83:ed:3e:98:30:71:fa:87:dd:a3:
                    36:5a:30:03:2e:26:e0:61:d1:bf:02:3f:b6:06:1f:
                    4a:89:28:1c:5c:a2:ff:4e:be:94:e6:8c:e0:da:82:
                    f1:9d:29:32:48:30:73:b4:04:f6:42:1e:be:f7:e2:
                    32:32:27:3c:9d:89:2f:70:3e:85:9a:6f:5c:c5:09:
                    c0:8c:32:2f:72:22:c9:d2:95:1f:b6:ac:72:60:72:
                    b7:82:4d:6b:ce:5b:e3:00:d0:d2:2f:58:c6:e0:10:
                    e5:51:ca:4d:3b:2e:e6:7e:ab:84:d6:56:f1:93:35:
                    a0:93:64:26:81:75:2f:91:b5:16:06:38:0b:db:cc:
                    2d:07
                Exponent: 65537 (0x10001)
        X509v3 extensions:
            X509v3 Key Usage: 
                Digital Signature, Key Encipherment
            X509v3 Basic Constraints: 
                CA:FALSE
            Netscape Cert Type: 
                SSL Server
            Netscape Comment: 
                OpenSSL Generated Server Certificate
            X509v3 Subject Key Identifier: 
                FC:14:D1:F0:4B:8D:00:90:F2:F5:B8:71:9E:4E:97:C3:92:54:AD:0B
            X509v3 Authority Key Identifier: 
                keyid:F4:A7:C0:CC:91:46:AF:64:F3:91:F2:27:F8:C8:B2:6F:8A:87:32:73
                DirName:/C=DE/ST=Hessen/O=privacyidea/CN=CA001
                serial:FB:C8:EB:AC:83:CD:12:07

            X509v3 Extended Key Usage: 
                TLS Web Server Authentication
    Signature Algorithm: sha256WithRSAEncryption
         66:5c:c6:c8:38:94:04:f9:9a:da:6a:0a:0d:e6:c0:d1:d1:0a:
         64:88:41:89:a3:54:86:93:79:6d:7c:4a:31:86:8b:28:78:18:
         de:8e:35:aa:5c:9f:35:b5:1c:b9:4f:db:f6:80:09:a5:54:ce:
         1f:3f:48:0b:94:f9:8e:cf:7f:55:b7:e1:8e:df:74:ea:03:8d:
         57:13:fa:c5:04:57:ca:b9:fa:a2:1d:02:02:b2:88:67:be:53:
         f0:ac:cb:a0:0a:e9:17:7b:34:e7:7c:e6:22:8c:23:1d:4d:16:
         98:79:ac:37:3f:ba:f5:36:ef:0a:c1:ad:d7:b6:22:6e:4f:b7:
         42:57:ac:8d:0b:04:0a:e6:3a:26:67:85:b2:e4:c8:e4:57:35:
         96:6f:85:85:7b:7f:47:f0:38:a0:44:05:12:a3:2f:c7:42:97:
         af:a0:57:a6:99:3d:a0:1d:07:1c:b2:2a:e5:1a:fd:d1:54:da:
         57:a5:a2:16:35:72:a0:a6:de:be:69:e8:09:e0:86:1b:2c:28:
         0f:89:be:4c:31:f1:c6:57:51:b3:1d:5d:44:3b:fb:6e:19:51:
         ae:ab:e5:e0:f9:65:4a:b6:1f:1b:53:ae:80:d2:62:cf:23:97:
         b9:fc:c5:09:45:2c:ef:ff:cb:27:a2:82:93:9d:03:63:97:d3:
         9d:03:46:a7
-----BEGIN CERTIFICATE-----
MIIEGTCCAwGgAwIBAgIEEAAA4jANBgkqhkiG9w0BAQsFADBEMQswCQYDVQQGEwJE
RTEPMA0GA1UECAwGSGVzc2VuMRQwEgYDVQQKDAtwcml2YWN5aWRlYTEOMAwGA1UE
AwwFQ0EwMDEwHhcNMTkwODE1MDkyNzAwWhcNMjAwODE0MDkyNzAwWjBHMQswCQYD
VQQGEwJERTEPMA0GA1UECAwGSGVzc2VuMRQwEgYDVQQKDAtwcml2YWN5aWRlYTER
MA8GA1UEAwwIdXNlcmNlcnQwggEiMA0GCSqGSIb3DQEBAQUAA4IBDwAwggEKAoIB
AQDcL9FfKZfUfMNTyDC9S2dwLCRruF7rIXpIElZ8gVxIdbZo6/bymE5QUdF/bHPz
Cqeuvkhe5dbh2Sp8Mm5O/Qj2WlRJI3PDuQcY0e+zrPiK3JSWpJA6jnTf5g03G71b
tyUaVjnab5GqXhx08/l8FAGDEmV2x7v+NluV6XJlg+0+mDBx+ofdozZaMAMuJuBh
0b8CP7YGH0qJKBxcov9OvpTmjODagvGdKTJIMHO0BPZCHr734jIyJzydiS9wPoWa
b1zFCcCMMi9yIsnSlR+2rHJgcreCTWvOW+MA0NIvWMbgEOVRyk07LuZ+q4TWVvGT
NaCTZCaBdS+RtRYGOAvbzC0HAgMBAAGjggEOMIIBCjALBgNVHQ8EBAMCBaAwCQYD
VR0TBAIwADARBglghkgBhvhCAQEEBAMCBkAwMwYJYIZIAYb4QgENBCYWJE9wZW5T
U0wgR2VuZXJhdGVkIFNlcnZlciBDZXJ0aWZpY2F0ZTAdBgNVHQ4EFgQU/BTR8EuN
AJDy9bhxnk6Xw5JUrQswdAYDVR0jBG0wa4AU9KfAzJFGr2TzkfIn+Miyb4qHMnOh
SKRGMEQxCzAJBgNVBAYTAkRFMQ8wDQYDVQQIDAZIZXNzZW4xFDASBgNVBAoMC3By
aXZhY3lpZGVhMQ4wDAYDVQQDDAVDQTAwMYIJAPvI66yDzRIHMBMGA1UdJQQMMAoG
CCsGAQUFBwMBMA0GCSqGSIb3DQEBCwUAA4IBAQBmXMbIOJQE+ZraagoN5sDR0Qpk
iEGJo1SGk3ltfEoxhosoeBjejjWqXJ81tRy5T9v2gAmlVM4fP0gLlPmOz39Vt+GO
33TqA41XE/rFBFfKufqiHQICsohnvlPwrMugCukXezTnfOYijCMdTRaYeaw3P7r1
Nu8Kwa3XtiJuT7dCV6yNCwQK5jomZ4Wy5MjkVzWWb4WFe39H8DigRAUSoy/HQpev
oFemmT2gHQccsirlGv3RVNpXpaIWNXKgpt6+aegJ4IYbLCgPib5MMfHGV1GzHV1E
O/tuGVGuq+Xg+WVKth8bU66A0mLPI5e5/MUJRSzv/8snooKTnQNjl9OdA0an
-----END CERTIFICATE-----
