Certificate:
    Data:
        Version: 3 (0x2)
        Serial Number: 268435677 (0x100000dd)
        Signature Algorithm: sha256WithRSAEncryption
        Issuer: C=DE, ST=Hessen, O=privacyidea, CN=CA001
        Validity
            Not Before: Aug 16 15:12:41 2019 GMT
            Not After : Aug 15 15:12:41 2020 GMT
        Subject: OU=realm1, CN=cornelius/emailAddress=user@localhost.localdomain
        Subject Public Key Info:
            Public Key Algorithm: rsaEncryption
                RSA Public-Key: (2048 bit)
                Modulus:
                    00:db:29:c8:ad:33:ce:2f:65:8f:57:d7:c3:e3:74:
                    2d:91:8b:b2:96:67:bf:fe:a6:52:ff:b4:f0:08:c8:
                    a2:d4:22:bd:33:a9:5b:0a:f7:63:4e:41:8f:5e:6f:
                    81:c5:59:99:cf:02:b8:16:88:0e:11:e6:e0:f8:8d:
                    7e:c5:13:83:52:70:23:38:94:f8:41:bc:73:96:e6:
                    cf:6a:09:06:69:7e:c5:c7:23:50:70:3a:fa:53:0f:
                    67:49:fd:ef:59:74:69:9f:94:9a:ba:50:f0:50:bc:
                    38:c5:9f:fa:26:b2:c2:dd:e2:0e:b8:f3:48:92:4d:
                    e8:b9:6f:8b:ab:6e:c1:2a:cb:9d:84:0f:a6:9f:c7:
                    75:b6:c2:ea:f7:fa:b0:2c:b5:3d:8b:2c:11:a2:d0:
                    f3:57:46:17:2e:6b:51:61:5a:bc:44:4d:59:b5:89:
                    35:1f:e6:09:fd:e6:36:df:41:41:b5:b1:df:a7:17:
                    5f:19:fd:2f:57:15:59:14:a4:ce:0a:24:82:40:72:
                    1e:ad:5c:f7:1b:56:c6:a6:fb:e5:9a:2f:71:f9:4e:
                    8f:93:cb:87:e6:f8:7a:2f:13:1d:aa:5f:57:62:c4:
                    ad:2e:77:16:69:03:bc:20:48:39:79:0d:7a:5a:4f:
                    58:02:1b:02:5f:b4:0b:28:21:da:75:ed:62:60:e2:
                    8c:ad
                Exponent: 65537 (0x10001)
        X509v3 extensions:
            X509v3 Key Usage: 
                Digital Signature, Key Encipherment
            X509v3 Basic Constraints: 
                CA:FALSE
            Netscape Cert Type: 
                SSL Server
            Netscape Comment: 
                OpenSSL Generated Server Certificate
            X509v3 Subject Key Identifier: 
                0F:14:B8:05:9D:60:CD:7B:6A:56:7B:98:0B:5E:7C:42:FC:97:52:C4
            X509v3 Authority Key Identifier: 
                keyid:F4:A7:C0:CC:91:46:AF:64:F3:91:F2:27:F8:C8:B2:6F:8A:87:32:73
                DirName:/C=DE/ST=Hessen/O=privacyidea/CN=CA001
                serial:FB:C8:EB:AC:83:CD:12:07

            X509v3 Extended Key Usage: 
                TLS Web Server Authentication
    Signature Algorithm: sha256WithRSAEncryption
         24:67:ff:c7:71:dc:30:46:10:5b:21:bb:b9:a7:b8:89:00:9f:
         5c:fd:53:71:78:5b:c1:48:39:86:b4:2a:95:24:8d:5f:40:71:
         d6:cb:15:34:0b:13:5e:d8:63:4e:23:e7:ba:d4:38:2a:54:a2:
         8f:fd:13:8f:4c:ba:bf:f0:a1:0d:f2:d9:a0:09:32:44:ed:bc:
         3c:e1:1a:ed:2c:d1:73:7e:64:45:41:c7:ed:73:a4:f8:79:cb:
         d6:36:62:1d:84:4e:24:91:51:70:61:3e:36:96:4f:4c:32:8e:
         0e:a2:e6:9c:73:6d:e4:66:7d:b1:99:72:19:fc:1d:20:7f:f7:
         42:39:85:4c:0e:b9:25:e1:24:f1:45:46:eb:3e:65:82:6e:4d:
         d0:b8:c8:0d:8d:94:1f:df:1e:25:bb:7c:0e:b0:c5:b0:c2:aa:
         86:af:10:bf:43:36:2a:fd:09:dc:c7:a7:a0:6f:71:08:9e:27:
         cd:7d:84:a5:d1:4c:37:08:f6:34:1a:d8:4d:da:17:3d:6d:35:
         63:ac:15:13:b8:fe:f6:8b:1d:8f:53:0a:ae:69:a0:26:43:9d:
         31:8b:a6:34:a6:0d:22:6d:ce:e3:3d:3b:36:37:84:1e:42:be:
         db:a3:0a:f1:cb:26:24:fe:9b:2c:91:9b:4c:03:06:63:6b:63:
         40:49:2f:d3
-----BEGIN CERTIFICATE-----
MIIEIjCCAwqgAwIBAgIEEAAA3TANBgkqhkiG9w0BAQsFADBEMQswCQYDVQQGEwJE
RTEPMA0GA1UECAwGSGVzc2VuMRQwEgYDVQQKDAtwcml2YWN5aWRlYTEOMAwGA1UE
AwwFQ0EwMDEwHhcNMTkwODE2MTUxMjQxWhcNMjAwODE1MTUxMjQxWjBQMQ8wDQYD
VQQLDAZyZWFsbTExEjAQBgNVBAMMCWNvcm5lbGl1czEpMCcGCSqGSIb3DQEJARYa
dXNlckBsb2NhbGhvc3QubG9jYWxkb21haW4wggEiMA0GCSqGSIb3DQEBAQUAA4IB
DwAwggEKAoIBAQDbKcitM84vZY9X18PjdC2Ri7KWZ7/+plL/tPAIyKLUIr0zqVsK
92NOQY9eb4HFWZnPArgWiA4R5uD4jX7FE4NScCM4lPhBvHOW5s9qCQZpfsXHI1Bw
OvpTD2dJ/e9ZdGmflJq6UPBQvDjFn/omssLd4g6480iSTei5b4urbsEqy52ED6af
x3W2wur3+rAstT2LLBGi0PNXRhcua1FhWrxETVm1iTUf5gn95jbfQUG1sd+nF18Z
/S9XFVkUpM4KJIJAch6tXPcbVsam++WaL3H5To+Ty4fm+HovEx2qX1dixK0udxZp
A7wgSDl5DXpaT1gCGwJftAsoIdp17WJg4oytAgMBAAGjggEOMIIBCjALBgNVHQ8E
BAMCBaAwCQYDVR0TBAIwADARBglghkgBhvhCAQEEBAMCBkAwMwYJYIZIAYb4QgEN
BCYWJE9wZW5TU0wgR2VuZXJhdGVkIFNlcnZlciBDZXJ0aWZpY2F0ZTAdBgNVHQ4E
FgQUDxS4BZ1gzXtqVnuYC158QvyXUsQwdAYDVR0jBG0wa4AU9KfAzJFGr2TzkfIn
+Miyb4qHMnOhSKRGMEQxCzAJBgNVBAYTAkRFMQ8wDQYDVQQIDAZIZXNzZW4xFDAS
BgNVBAoMC3ByaXZhY3lpZGVhMQ4wDAYDVQQDDAVDQTAwMYIJAPvI66yDzRIHMBMG
A1UdJQQMMAoGCCsGAQUFBwMBMA0GCSqGSIb3DQEBCwUAA4IBAQAkZ//HcdwwRhBb
Ibu5p7iJAJ9c/VNxeFvBSDmGtCqVJI1fQHHWyxU0CxNe2GNOI+e61DgqVKKP/ROP
TLq/8KEN8tmgCTJE7bw84RrtLNFzfmRFQcftc6T4ecvWNmIdhE4kkVFwYT42lk9M
Mo4Oouacc23kZn2xmXIZ/B0gf/dCOYVMDrkl4STxRUbrPmWCbk3QuMgNjZQf3x4l
u3wOsMWwwqqGrxC/QzYq/Qncx6egb3EInifNfYSl0Uw3CPY0GthN2hc9bTVjrBUT
uP72ix2PUwquaaAmQ50xi6Y0pg0ibc7jPTs2N4QeQr7bowrxyyYk/psskZtMAwZj
a2NASS/T
-----END CERTIFICATE-----
