Certificate:
    Data:
        Version: 3 (0x2)
        Serial Number: 268435667 (0x100000d3)
        Signature Algorithm: sha256WithRSAEncryption
        Issuer: C=DE, ST=Hessen, O=privacyidea, CN=CA001
        Validity
            Not Before: Aug 19 14:03:03 2019 GMT
            Not After : Aug 18 14:03:03 2020 GMT
        Subject: CN=Steve Test/emailAddress=steve@openssl.org
        Subject Public Key Info:
            Public Key Algorithm: rsaEncryption
                RSA Public-Key: (2048 bit)
                Modulus:
                    00:d2:81:89:20:51:48:0f:73:f4:11:32:24:d5:1f:
                    1c:fd:5c:f5:b6:e6:c5:f0:52:81:dc:d2:af:66:4a:
                    7c:93:31:61:5c:af:d1:6d:06:70:03:60:7c:72:0c:
                    88:dd:49:cd:9e:02:6c:d2:5a:d7:53:0f:f3:da:be:
                    69:64:b5:0f:0c:00:e3:b3:50:47:a3:b3:9b:ba:13:
                    50:d6:58:5a:4b:ab:39:e0:11:ca:0a:27:67:03:78:
                    22:66:6d:92:1e:1b:5c:49:ae:e6:6b:d1:8e:3b:9d:
                    06:d3:c6:ac:4d:53:43:10:ab:e8:96:c1:87:82:97:
                    99:8f:20:d3:99:12:37:31:84:e1:8a:ff:29:03:5f:
                    22:90:3e:7f:9b:e0:20:c1:ad:dc:ae:4c:39:1a:31:
                    96:17:02:8c:b2:d9:b4:0d:20:12:9b:7d:86:54:fd:
                    33:fd:c1:2a:62:46:f8:60:96:cf:6e:01:6f:22:df:
                    13:47:e7:97:ec:05:72:23:a3:62:f8:fa:ef:ac:9c:
                    72:f0:37:cb:2f:37:cf:90:a8:27:51:86:c6:d7:78:
                    08:8f:7e:25:a2:15:70:a2:fb:1c:b6:15:5e:a0:97:
                    8b:81:4c:09:28:8a:27:3b:94:bc:71:db:5b:71:37:
                    9a:2b:16:e0:6f:b5:c9:f5:4b:4f:20:ba:65:cf:af:
                    ad:ad
                Exponent: 65537 (0x10001)
        X509v3 extensions:
            X509v3 Key Usage: 
                Digital Signature, Key Encipherment
            X509v3 Basic Constraints: 
                CA:FALSE
            Netscape Cert Type: 
                SSL Server
            Netscape Comment: 
                OpenSSL Generated Server Certificate
            X509v3 Subject Key Identifier: 
                E5:25:6D:3E:AF:0D:DD:3F:4C:F2:45:19:39:D5:14:DB:7E:9C:C0:AD
            X509v3 Authority Key Identifier: 
                keyid:F4:A7:C0:CC:91:46:AF:64:F3:91:F2:27:F8:C8:B2:6F:8A:87:32:73
                DirName:/C=DE/ST=Hessen/O=privacyidea/CN=CA001
                serial:FB:C8:EB:AC:83:CD:12:07

            X509v3 Extended Key Usage: 
                TLS Web Server Authentication
    Signature Algorithm: sha256WithRSAEncryption
         3f:d2:07:f9:e1:63:bd:ef:23:c6:17:47:08:aa:13:c0:3b:48:
         f7:b1:df:96:f4:6c:64:8b:d5:18:ee:27:ef:9b:fe:dc:e8:e2:
         d9:39:1b:29:cf:78:15:55:18:85:dd:17:b3:d2:69:ef:5f:8b:
         43:71:af:5b:71:a2:cc:b4:26:b8:f4:11:f7:1b:de:3e:f4:fe:
         30:f2:d5:27:c1:04:6c:d2:81:b7:ac:f7:86:7c:c0:34:d1:06:
         a6:2f:0f:6d:3a:3b:cb:27:e8:a6:ad:60:7f:78:da:54:a5:a6:
         d1:6d:c6:16:b1:72:56:66:3e:c3:b9:e1:c9:b4:55:46:e2:c2:
         16:9d:c3:0f:58:22:46:4b:0c:cf:c4:8e:cc:99:0d:4b:4e:b6:
         51:02:83:8e:bd:04:63:17:ac:69:56:4a:8a:5f:a2:35:d1:fc:
         78:a3:6d:8f:4f:85:27:20:cc:19:25:6a:fd:7e:a9:a5:b0:8e:
         2a:35:16:ff:11:f3:6a:5f:6c:cf:cf:05:d0:08:5f:e7:b2:a3:
         05:88:d3:07:83:41:76:d7:c4:b6:59:17:7a:45:a2:5d:ed:a4:
         bf:57:3f:64:fe:bb:8a:cd:0d:7e:7a:6e:72:01:f4:25:a9:3f:
         07:e3:ab:a3:68:a8:a0:ad:77:87:d0:47:7a:de:52:48:02:3a:
         61:3a:6b:be
-----BEGIN CERTIFICATE-----
MIIECTCCAvGgAwIBAgIEEAAA0zANBgkqhkiG9w0BAQsFADBEMQswCQYDVQQGEwJE
RTEPMA0GA1UECAwGSGVzc2VuMRQwEgYDVQQKDAtwcml2YWN5aWRlYTEOMAwGA1UE
AwwFQ0EwMDEwHhcNMTkwODE5MTQwMzAzWhcNMjAwODE4MTQwMzAzWjA3MRMwEQYD
VQQDDApTdGV2ZSBUZXN0MSAwHgYJKoZIhvcNAQkBFhFzdGV2ZUBvcGVuc3NsLm9y
ZzCCASIwDQYJKoZIhvcNAQEBBQADggEPADCCAQoCggEBANKBiSBRSA9z9BEyJNUf
HP1c9bbmxfBSgdzSr2ZKfJMxYVyv0W0GcANgfHIMiN1JzZ4CbNJa11MP89q+aWS1
DwwA47NQR6Ozm7oTUNZYWkurOeARygonZwN4ImZtkh4bXEmu5mvRjjudBtPGrE1T
QxCr6JbBh4KXmY8g05kSNzGE4Yr/KQNfIpA+f5vgIMGt3K5MORoxlhcCjLLZtA0g
Ept9hlT9M/3BKmJG+GCWz24BbyLfE0fnl+wFciOjYvj676yccvA3yy83z5CoJ1GG
xtd4CI9+JaIVcKL7HLYVXqCXi4FMCSiKJzuUvHHbW3E3misW4G+1yfVLTyC6Zc+v
ra0CAwEAAaOCAQ4wggEKMAsGA1UdDwQEAwIFoDAJBgNVHRMEAjAAMBEGCWCGSAGG
+EIBAQQEAwIGQDAzBglghkgBhvhCAQ0EJhYkT3BlblNTTCBHZW5lcmF0ZWQgU2Vy
dmVyIENlcnRpZmljYXRlMB0GA1UdDgQWBBTlJW0+rw3dP0zyRRk51RTbfpzArTB0
BgNVHSMEbTBrgBT0p8DMkUavZPOR8if4yLJviocyc6FIpEYwRDELMAkGA1UEBhMC
REUxDzANBgNVBAgMBkhlc3NlbjEUMBIGA1UECgwLcHJpdmFjeWlkZWExDjAMBgNV
BAMMBUNBMDAxggkA+8jrrIPNEgcwEwYDVR0lBAwwCgYIKwYBBQUHAwEwDQYJKoZI
hvcNAQELBQADggEBAD/SB/nhY73vI8YXRwiqE8A7SPex35b0bGSL1RjuJ++b/tzo
4tk5GynPeBVVGIXdF7PSae9fi0Nxr1txosy0Jrj0Efcb3j70/jDy1SfBBGzSgbes
94Z8wDTRBqYvD206O8sn6KatYH942lSlptFtxhaxclZmPsO54cm0VUbiwhadww9Y
IkZLDM/EjsyZDUtOtlECg469BGMXrGlWSopfojXR/HijbY9PhScgzBklav1+qaWw
jio1Fv8R82pfbM/PBdAIX+eyowWI0weDQXbXxLZZF3pFol3tpL9XP2T+u4rNDX56
bnIB9CWpPwfjq6NoqKCtd4fQR3reUkgCOmE6a74=
-----END CERTIFICATE-----
