Certificate:
    Data:
        Version: 3 (0x2)
        Serial Number: 268435674 (0x100000da)
        Signature Algorithm: sha256WithRSAEncryption
        Issuer: C=DE, ST=Hessen, O=privacyidea, CN=CA001
        Validity
            Not Before: Aug 16 15:10:34 2019 GMT
            Not After : Aug 15 15:10:34 2020 GMT
        Subject: CN=Steve Test/emailAddress=steve@openssl.org
        Subject Public Key Info:
            Public Key Algorithm: rsaEncryption
                RSA Public-Key: (2048 bit)
                Modulus:
                    00:d2:81:89:20:51:48:0f:73:f4:11:32:24:d5:1f:
                    1c:fd:5c:f5:b6:e6:c5:f0:52:81:dc:d2:af:66:4a:
                    7c:93:31:61:5c:af:d1:6d:06:70:03:60:7c:72:0c:
                    88:dd:49:cd:9e:02:6c:d2:5a:d7:53:0f:f3:da:be:
                    69:64:b5:0f:0c:00:e3:b3:50:47:a3:b3:9b:ba:13:
                    50:d6:58:5a:4b:ab:39:e0:11:ca:0a:27:67:03:78:
                    22:66:6d:92:1e:1b:5c:49:ae:e6:6b:d1:8e:3b:9d:
                    06:d3:c6:ac:4d:53:43:10:ab:e8:96:c1:87:82:97:
                    99:8f:20:d3:99:12:37:31:84:e1:8a:ff:29:03:5f:
                    22:90:3e:7f:9b:e0:20:c1:ad:dc:ae:4c:39:1a:31:
                    96:17:02:8c:b2:d9:b4:0d:20:12:9b:7d:86:54:fd:
                    33:fd:c1:2a:62:46:f8:60:96:cf:6e:01:6f:22:df:
                    13:47:e7:97:ec:05:72:23:a3:62:f8:fa:ef:ac:9c:
                    72:f0:37:cb:2f:37:cf:90:a8:27:51:86:c6:d7:78:
                    08:8f:7e:25:a2:15:70:a2:fb:1c:b6:15:5e:a0:97:
                    8b:81:4c:09:28:8a:27:3b:94:bc:71:db:5b:71:37:
                    9a:2b:16:e0:6f:b5:c9:f5:4b:4f:20:ba:65:cf:af:
                    ad:ad
                Exponent: 65537 (0x10001)
        X509v3 extensions:
            X509v3 Key Usage: 
                Digital Signature, Key Encipherment
            X509v3 Basic Constraints: 
                CA:FALSE
            Netscape Cert Type: 
                SSL Server
            Netscape Comment: 
                OpenSSL Generated Server Certificate
            X509v3 Subject Key Identifier: 
                E5:25:6D:3E:AF:0D:DD:3F:4C:F2:45:19:39:D5:14:DB:7E:9C:C0:AD
            X509v3 Authority Key Identifier: 
                keyid:F4:A7:C0:CC:91:46:AF:64:F3:91:F2:27:F8:C8:B2:6F:8A:87:32:73
                DirName:/C=DE/ST=Hessen/O=privacyidea/CN=CA001
                serial:FB:C8:EB:AC:83:CD:12:07

            X509v3 Extended Key Usage: 
                TLS Web Server Authentication
    Signature Algorithm: sha256WithRSAEncryption
         02:99:c1:9b:bc:8e:ed:90:f3:df:8a:d8:87:08:74:32:98:64:
         4d:97:5c:53:a8:9a:ec:01:7e:b6:93:3d:bd:d3:62:ff:2a:6b:
         ae:36:e9:8b:51:34:d9:9b:0b:bf:c7:d0:71:f9:a1:92:81:b0:
         bb:49:fd:d2:fe:81:b8:21:f3:3c:7d:90:b7:cf:18:f8:16:0c:
         58:9a:47:37:f9:b7:85:e2:8a:07:b0:5b:c7:de:7e:b8:f2:13:
         0d:43:83:53:1b:dd:55:12:33:f5:af:94:a1:c0:22:33:eb:16:
         e6:1f:48:df:d7:89:8f:6d:10:58:49:f9:c2:f3:69:72:36:04:
         39:2a:b9:0d:e0:1b:73:0b:34:13:9b:f6:90:25:a8:ac:15:a4:
         08:66:1a:a2:9b:68:14:54:43:90:a4:3b:87:50:8a:78:1b:8a:
         2d:f7:10:34:9a:00:ce:d1:f5:58:27:63:ef:b0:32:61:5a:de:
         f8:2f:e6:c4:bc:a3:de:f2:28:0b:1b:65:db:0d:da:0f:70:49:
         81:37:d1:75:a9:ee:e8:b2:76:78:73:50:8c:ba:19:55:18:40:
         39:6c:8a:3b:91:9c:d7:64:73:e0:df:a6:6a:d7:f0:7f:0c:69:
         62:86:51:8e:3b:ce:db:0e:47:f9:96:b7:39:d7:b5:3a:ec:45:
         a8:ca:ca:be
-----BEGIN CERTIFICATE-----
MIIECTCCAvGgAwIBAgIEEAAA2jANBgkqhkiG9w0BAQsFADBEMQswCQYDVQQGEwJE
RTEPMA0GA1UECAwGSGVzc2VuMRQwEgYDVQQKDAtwcml2YWN5aWRlYTEOMAwGA1UE
AwwFQ0EwMDEwHhcNMTkwODE2MTUxMDM0WhcNMjAwODE1MTUxMDM0WjA3MRMwEQYD
VQQDDApTdGV2ZSBUZXN0MSAwHgYJKoZIhvcNAQkBFhFzdGV2ZUBvcGVuc3NsLm9y
ZzCCASIwDQYJKoZIhvcNAQEBBQADggEPADCCAQoCggEBANKBiSBRSA9z9BEyJNUf
HP1c9bbmxfBSgdzSr2ZKfJMxYVyv0W0GcANgfHIMiN1JzZ4CbNJa11MP89q+aWS1
DwwA47NQR6Ozm7oTUNZYWkurOeARygonZwN4ImZtkh4bXEmu5mvRjjudBtPGrE1T
QxCr6JbBh4KXmY8g05kSNzGE4Yr/KQNfIpA+f5vgIMGt3K5MORoxlhcCjLLZtA0g
Ept9hlT9M/3BKmJG+GCWz24BbyLfE0fnl+wFciOjYvj676yccvA3yy83z5CoJ1GG
xtd4CI9+JaIVcKL7HLYVXqCXi4FMCSiKJzuUvHHbW3E3misW4G+1yfVLTyC6Zc+v
ra0CAwEAAaOCAQ4wggEKMAsGA1UdDwQEAwIFoDAJBgNVHRMEAjAAMBEGCWCGSAGG
+EIBAQQEAwIGQDAzBglghkgBhvhCAQ0EJhYkT3BlblNTTCBHZW5lcmF0ZWQgU2Vy
dmVyIENlcnRpZmljYXRlMB0GA1UdDgQWBBTlJW0+rw3dP0zyRRk51RTbfpzArTB0
BgNVHSMEbTBrgBT0p8DMkUavZPOR8if4yLJviocyc6FIpEYwRDELMAkGA1UEBhMC
REUxDzANBgNVBAgMBkhlc3NlbjEUMBIGA1UECgwLcHJpdmFjeWlkZWExDjAMBgNV
BAMMBUNBMDAxggkA+8jrrIPNEgcwEwYDVR0lBAwwCgYIKwYBBQUHAwEwDQYJKoZI
hvcNAQELBQADggEBAAKZwZu8ju2Q89+K2IcIdDKYZE2XXFOomuwBfraTPb3TYv8q
a6426YtRNNmbC7/H0HH5oZKBsLtJ/dL+gbgh8zx9kLfPGPgWDFiaRzf5t4Xiigew
W8fefrjyEw1Dg1Mb3VUSM/WvlKHAIjPrFuYfSN/XiY9tEFhJ+cLzaXI2BDkquQ3g
G3MLNBOb9pAlqKwVpAhmGqKbaBRUQ5CkO4dQingbii33EDSaAM7R9VgnY++wMmFa
3vgv5sS8o97yKAsbZdsN2g9wSYE30XWp7uiydnhzUIy6GVUYQDlsijuRnNdkc+Df
pmrX8H8MaWKGUY47ztsOR/mWtznXtTrsRajKyr4=
-----END CERTIFICATE-----
