Certificate:
    Data:
        Version: 3 (0x2)
        Serial Number: 268435675 (0x100000db)
        Signature Algorithm: sha256WithRSAEncryption
        Issuer: C=DE, ST=Hessen, O=privacyidea, CN=CA001
        Validity
            Not Before: Aug 16 15:10:34 2019 GMT
            Not After : Sep  4 15:10:34 2021 GMT
        Subject: CN=Steve Test/emailAddress=steve@openssl.org
        Subject Public Key Info:
            Public Key Algorithm: rsaEncryption
                RSA Public-Key: (2048 bit)
                Modulus:
                    00:d2:81:89:20:51:48:0f:73:f4:11:32:24:d5:1f:
                    1c:fd:5c:f5:b6:e6:c5:f0:52:81:dc:d2:af:66:4a:
                    7c:93:31:61:5c:af:d1:6d:06:70:03:60:7c:72:0c:
                    88:dd:49:cd:9e:02:6c:d2:5a:d7:53:0f:f3:da:be:
                    69:64:b5:0f:0c:00:e3:b3:50:47:a3:b3:9b:ba:13:
                    50:d6:58:5a:4b:ab:39:e0:11:ca:0a:27:67:03:78:
                    22:66:6d:92:1e:1b:5c:49:ae:e6:6b:d1:8e:3b:9d:
                    06:d3:c6:ac:4d:53:43:10:ab:e8:96:c1:87:82:97:
                    99:8f:20:d3:99:12:37:31:84:e1:8a:ff:29:03:5f:
                    22:90:3e:7f:9b:e0:20:c1:ad:dc:ae:4c:39:1a:31:
                    96:17:02:8c:b2:d9:b4:0d:20:12:9b:7d:86:54:fd:
                    33:fd:c1:2a:62:46:f8:60:96:cf:6e:01:6f:22:df:
                    13:47:e7:97:ec:05:72:23:a3:62:f8:fa:ef:ac:9c:
                    72:f0:37:cb:2f:37:cf:90:a8:27:51:86:c6:d7:78:
                    08:8f:7e:25:a2:15:70:a2:fb:1c:b6:15:5e:a0:97:
                    8b:81:4c:09:28:8a:27:3b:94:bc:71:db:5b:71:37:
                    9a:2b:16:e0:6f:b5:c9:f5:4b:4f:20:ba:65:cf:af:
                    ad:ad
                Exponent: 65537 (0x10001)
        X509v3 extensions:
            X509v3 Key Usage: 
                Digital Signature, Key Encipherment
            X509v3 Basic Constraints: 
                CA:FALSE
            Netscape Cert Type: 
                SSL Server
            Netscape Comment: 
                OpenSSL Generated Server Certificate
            X509v3 Subject Key Identifier: 
                E5:25:6D:3E:AF:0D:DD:3F:4C:F2:45:19:39:D5:14:DB:7E:9C:C0:AD
            X509v3 Authority Key Identifier: 
                keyid:F4:A7:C0:CC:91:46:AF:64:F3:91:F2:27:F8:C8:B2:6F:8A:87:32:73
                DirName:/C=DE/ST=Hessen/O=privacyidea/CN=CA001
                serial:FB:C8:EB:AC:83:CD:12:07

            X509v3 Extended Key Usage: 
                TLS Web Server Authentication
    Signature Algorithm: sha256WithRSAEncryption
         28:c6:fe:7e:ec:57:74:ad:a7:a5:cc:8c:a8:90:fd:1a:19:98:
         04:48:a7:a0:a5:af:a6:e7:56:f2:63:1b:ff:0c:e2:6c:a0:59:
         ba:5c:cb:52:9c:02:d7:7c:5c:16:3b:2b:1e:f7:fc:bf:ec:a4:
         bf:66:cd:3b:72:72:b2:08:f3:1e:28:e0:18:2b:31:f4:fb:05:
         8e:08:45:d3:5d:d9:de:17:23:3c:e4:7e:48:63:e3:76:b2:8c:
         f3:63:b3:c3:d2:62:f4:29:32:94:4c:d5:13:58:77:61:60:f2:
         af:48:d3:eb:f0:0a:8e:b8:99:6b:fb:36:4e:ba:b5:07:d6:5a:
         dc:1d:e4:08:37:7f:f9:90:65:f8:b3:ac:36:d4:3e:4b:77:2b:
         df:ec:23:3b:a8:02:a3:89:1e:f2:59:a4:c5:0f:41:f6:a3:00:
         59:d4:ad:d3:09:af:ae:b4:cf:39:3c:02:67:39:c4:fc:5a:0f:
         82:42:6a:25:f6:19:1a:4e:56:91:11:52:dd:2f:ff:6a:54:e9:
         70:7f:1e:66:c9:fb:e0:ad:d7:79:a4:d8:29:92:38:c9:65:bd:
         63:a3:c7:4c:3e:01:f6:56:0f:c0:7b:9a:0a:8d:5b:d2:ac:43:
         72:02:b4:89:f1:3f:c9:d9:ea:b7:60:6b:7e:3c:70:86:3a:db:
         21:da:86:81
-----BEGIN CERTIFICATE-----
MIIECTCCAvGgAwIBAgIEEAAA2zANBgkqhkiG9w0BAQsFADBEMQswCQYDVQQGEwJE
RTEPMA0GA1UECAwGSGVzc2VuMRQwEgYDVQQKDAtwcml2YWN5aWRlYTEOMAwGA1UE
AwwFQ0EwMDEwHhcNMTkwODE2MTUxMDM0WhcNMjEwOTA0MTUxMDM0WjA3MRMwEQYD
VQQDDApTdGV2ZSBUZXN0MSAwHgYJKoZIhvcNAQkBFhFzdGV2ZUBvcGVuc3NsLm9y
ZzCCASIwDQYJKoZIhvcNAQEBBQADggEPADCCAQoCggEBANKBiSBRSA9z9BEyJNUf
HP1c9bbmxfBSgdzSr2ZKfJMxYVyv0W0GcANgfHIMiN1JzZ4CbNJa11MP89q+aWS1
DwwA47NQR6Ozm7oTUNZYWkurOeARygonZwN4ImZtkh4bXEmu5mvRjjudBtPGrE1T
QxCr6JbBh4KXmY8g05kSNzGE4Yr/KQNfIpA+f5vgIMGt3K5MORoxlhcCjLLZtA0g
Ept9hlT9M/3BKmJG+GCWz24BbyLfE0fnl+wFciOjYvj676yccvA3yy83z5CoJ1GG
xtd4CI9+JaIVcKL7HLYVXqCXi4FMCSiKJzuUvHHbW3E3misW4G+1yfVLTyC6Zc+v
ra0CAwEAAaOCAQ4wggEKMAsGA1UdDwQEAwIFoDAJBgNVHRMEAjAAMBEGCWCGSAGG
+EIBAQQEAwIGQDAzBglghkgBhvhCAQ0EJhYkT3BlblNTTCBHZW5lcmF0ZWQgU2Vy
dmVyIENlcnRpZmljYXRlMB0GA1UdDgQWBBTlJW0+rw3dP0zyRRk51RTbfpzArTB0
BgNVHSMEbTBrgBT0p8DMkUavZPOR8if4yLJviocyc6FIpEYwRDELMAkGA1UEBhMC
REUxDzANBgNVBAgMBkhlc3NlbjEUMBIGA1UECgwLcHJpdmFjeWlkZWExDjAMBgNV
BAMMBUNBMDAxggkA+8jrrIPNEgcwEwYDVR0lBAwwCgYIKwYBBQUHAwEwDQYJKoZI
hvcNAQELBQADggEBACjG/n7sV3Stp6XMjKiQ/RoZmARIp6Clr6bnVvJjG/8M4myg
Wbpcy1KcAtd8XBY7Kx73/L/spL9mzTtycrII8x4o4BgrMfT7BY4IRdNd2d4XIzzk
fkhj43ayjPNjs8PSYvQpMpRM1RNYd2Fg8q9I0+vwCo64mWv7Nk66tQfWWtwd5Ag3
f/mQZfizrDbUPkt3K9/sIzuoAqOJHvJZpMUPQfajAFnUrdMJr660zzk8Amc5xPxa
D4JCaiX2GRpOVpERUt0v/2pU6XB/HmbJ++Ct13mk2CmSOMllvWOjx0w+AfZWD8B7
mgqNW9KsQ3ICtInxP8nZ6rdga348cIY62yHahoE=
-----END CERTIFICATE-----
