Certificate:
    Data:
        Version: 3 (0x2)
        Serial Number: 268435669 (0x100000d5)
        Signature Algorithm: sha256WithRSAEncryption
        Issuer: C=DE, ST=Hessen, O=privacyidea, CN=CA001
        Validity
            Not Before: Aug 19 14:05:17 2019 GMT
            Not After : Aug 18 14:05:17 2020 GMT
        Subject: C=DE, ST=Hessen, O=privacyidea, CN=requester.localdomain
        Subject Public Key Info:
            Public Key Algorithm: rsaEncryption
                RSA Public-Key: (2048 bit)
                Modulus:
                    00:cd:be:14:4f:fa:ce:01:3f:42:22:1b:1d:9c:af:
                    dd:92:d2:7f:db:6c:b7:3e:39:43:43:6b:13:03:f1:
                    05:f4:07:74:bc:76:69:28:0b:af:19:8e:d7:fc:e3:
                    cd:c6:58:f2:ca:7f:08:6d:53:fc:07:02:44:24:c6:
                    b4:34:4c:8c:04:fe:33:0e:40:e2:20:ba:02:73:5a:
                    f7:f5:4f:63:6e:cc:c6:b6:df:54:1d:37:39:7d:51:
                    36:26:5f:bd:dc:3f:a8:8b:6b:a2:ae:b6:9d:d6:21:
                    e7:df:41:b8:7a:28:2a:68:48:ca:a8:2d:ed:e1:e9:
                    46:5e:5a:72:6d:b4:84:38:87:91:fd:94:11:0b:28:
                    84:c6:c2:2f:2a:fb:01:f9:36:7a:09:75:d1:33:88:
                    3c:73:41:5b:c8:bf:94:89:70:a1:f0:c0:b9:2e:50:
                    53:1e:b1:17:64:69:f4:2d:81:e0:a9:0d:0e:32:e9:
                    ba:55:8a:85:f1:1b:6f:49:79:b4:7f:88:c3:0d:3e:
                    54:88:9b:3d:1f:38:8c:04:f3:ee:6a:63:2b:f5:c6:
                    db:b4:83:aa:c4:78:41:3a:7d:4b:e1:c8:3e:71:ca:
                    1b:61:59:ea:c6:c4:ca:32:5e:c9:e9:bf:12:29:e6:
                    c6:c3:63:fe:a0:55:da:7a:f1:60:98:4d:26:ed:fa:
                    70:2d
                Exponent: 65537 (0x10001)
        X509v3 extensions:
            X509v3 Key Usage: 
                Digital Signature, Key Encipherment
            X509v3 Basic Constraints: 
                CA:FALSE
            Netscape Cert Type: 
                SSL Server
            Netscape Comment: 
                OpenSSL Generated Server Certificate
            X509v3 Subject Key Identifier: 
                53:3F:ED:5D:09:07:B3:65:7B:AB:45:C9:24:5B:09:77:80:0A:96:ED
            X509v3 Authority Key Identifier: 
                keyid:F4:A7:C0:CC:91:46:AF:64:F3:91:F2:27:F8:C8:B2:6F:8A:87:32:73
                DirName:/C=DE/ST=Hessen/O=privacyidea/CN=CA001
                serial:FB:C8:EB:AC:83:CD:12:07

            X509v3 Extended Key Usage: 
                TLS Web Server Authentication
    Signature Algorithm: sha256WithRSAEncryption
         31:ea:a3:cd:aa:52:12:f8:fa:79:2e:32:96:93:b5:fe:04:f1:
         2f:e3:37:e8:eb:6c:16:2a:1e:46:de:d0:f3:fd:d2:6f:7a:50:
         2a:da:6d:dd:5d:43:cc:32:fe:17:d9:27:dd:1a:0a:4a:29:cf:
         d2:c1:b4:8c:1f:19:60:92:d1:99:2a:e2:68:53:dc:f9:12:25:
         0e:ba:0e:7b:2b:99:49:fb:a7:c4:59:6f:28:94:b1:fa:aa:2b:
         02:aa:f7:d0:b1:97:cf:81:25:3f:37:11:c4:6c:31:db:fe:0b:
         f8:dd:7d:d5:02:0b:25:96:2c:87:08:62:35:2e:25:bb:20:d1:
         76:67:a5:28:6b:d0:55:13:3e:1c:bc:47:49:80:09:59:6e:bf:
         47:46:0c:29:e1:7a:b6:bb:54:29:bc:0f:92:8d:8e:05:13:be:
         aa:f6:e2:02:16:4a:54:f4:d8:5a:c0:18:8b:22:77:6d:b0:bc:
         6c:44:0f:a2:d1:80:5a:4b:07:55:fc:c1:a4:25:58:08:79:ca:
         e0:83:31:8a:51:de:91:57:62:f6:88:7f:6a:61:83:0b:59:0d:
         83:dd:b9:7e:f8:7f:cb:02:a5:3c:e6:c4:37:fb:1a:32:5e:8e:
         71:1d:f7:b1:16:d1:73:57:c9:5c:09:81:98:4d:44:0d:71:78:
         d8:cc:b3:ee
-----BEGIN CERTIFICATE-----
MIIEJjCCAw6gAwIBAgIEEAAA1TANBgkqhkiG9w0BAQsFADBEMQswCQYDVQQGEwJE
RTEPMA0GA1UECAwGSGVzc2VuMRQwEgYDVQQKDAtwcml2YWN5aWRlYTEOMAwGA1UE
AwwFQ0EwMDEwHhcNMTkwODE5MTQwNTE3WhcNMjAwODE4MTQwNTE3WjBUMQswCQYD
VQQGEwJERTEPMA0GA1UECAwGSGVzc2VuMRQwEgYDVQQKDAtwcml2YWN5aWRlYTEe
MBwGA1UEAwwVcmVxdWVzdGVyLmxvY2FsZG9tYWluMIIBIjANBgkqhkiG9w0BAQEF
AAOCAQ8AMIIBCgKCAQEAzb4UT/rOAT9CIhsdnK/dktJ/22y3PjlDQ2sTA/EF9Ad0
vHZpKAuvGY7X/OPNxljyyn8IbVP8BwJEJMa0NEyMBP4zDkDiILoCc1r39U9jbszG
tt9UHTc5fVE2Jl+93D+oi2uirrad1iHn30G4eigqaEjKqC3t4elGXlpybbSEOIeR
/ZQRCyiExsIvKvsB+TZ6CXXRM4g8c0FbyL+UiXCh8MC5LlBTHrEXZGn0LYHgqQ0O
Mum6VYqF8RtvSXm0f4jDDT5UiJs9HziMBPPuamMr9cbbtIOqxHhBOn1L4cg+ccob
YVnqxsTKMl7J6b8SKebGw2P+oFXaevFgmE0m7fpwLQIDAQABo4IBDjCCAQowCwYD
VR0PBAQDAgWgMAkGA1UdEwQCMAAwEQYJYIZIAYb4QgEBBAQDAgZAMDMGCWCGSAGG
+EIBDQQmFiRPcGVuU1NMIEdlbmVyYXRlZCBTZXJ2ZXIgQ2VydGlmaWNhdGUwHQYD
VR0OBBYEFFM/7V0JB7Nle6tFySRbCXeACpbtMHQGA1UdIwRtMGuAFPSnwMyRRq9k
85HyJ/jIsm+KhzJzoUikRjBEMQswCQYDVQQGEwJERTEPMA0GA1UECAwGSGVzc2Vu
MRQwEgYDVQQKDAtwcml2YWN5aWRlYTEOMAwGA1UEAwwFQ0EwMDGCCQD7yOusg80S
BzATBgNVHSUEDDAKBggrBgEFBQcDATANBgkqhkiG9w0BAQsFAAOCAQEAMeqjzapS
Evj6eS4ylpO1/gTxL+M36OtsFioeRt7Q8/3Sb3pQKtpt3V1DzDL+F9kn3RoKSinP
0sG0jB8ZYJLRmSriaFPc+RIlDroOeyuZSfunxFlvKJSx+qorAqr30LGXz4ElPzcR
xGwx2/4L+N191QILJZYshwhiNS4luyDRdmelKGvQVRM+HLxHSYAJWW6/R0YMKeF6
trtUKbwPko2OBRO+qvbiAhZKVPTYWsAYiyJ3bbC8bEQPotGAWksHVfzBpCVYCHnK
4IMxilHekVdi9oh/amGDC1kNg925fvh/ywKlPObEN/saMl6OcR33sRbRc1fJXAmB
mE1EDXF42Myz7g==
-----END CERTIFICATE-----
