Certificate:
    Data:
        Version: 3 (0x2)
        Serial Number: 268435683 (0x100000e3)
        Signature Algorithm: sha256WithRSAEncryption
        Issuer: C=DE, ST=Hessen, O=privacyidea, CN=CA001
        Validity
            Not Before: Aug 15 09:27:00 2019 GMT
            Not After : Aug 14 09:27:00 2020 GMT
        Subject: CN=Steve Test/emailAddress=steve@openssl.org
        Subject Public Key Info:
            Public Key Algorithm: rsaEncryption
                RSA Public-Key: (2048 bit)
                Modulus:
                    00:d2:81:89:20:51:48:0f:73:f4:11:32:24:d5:1f:
                    1c:fd:5c:f5:b6:e6:c5:f0:52:81:dc:d2:af:66:4a:
                    7c:93:31:61:5c:af:d1:6d:06:70:03:60:7c:72:0c:
                    88:dd:49:cd:9e:02:6c:d2:5a:d7:53:0f:f3:da:be:
                    69:64:b5:0f:0c:00:e3:b3:50:47:a3:b3:9b:ba:13:
                    50:d6:58:5a:4b:ab:39:e0:11:ca:0a:27:67:03:78:
                    22:66:6d:92:1e:1b:5c:49:ae:e6:6b:d1:8e:3b:9d:
                    06:d3:c6:ac:4d:53:43:10:ab:e8:96:c1:87:82:97:
                    99:8f:20:d3:99:12:37:31:84:e1:8a:ff:29:03:5f:
                    22:90:3e:7f:9b:e0:20:c1:ad:dc:ae:4c:39:1a:31:
                    96:17:02:8c:b2:d9:b4:0d:20:12:9b:7d:86:54:fd:
                    33:fd:c1:2a:62:46:f8:60:96:cf:6e:01:6f:22:df:
                    13:47:e7:97:ec:05:72:23:a3:62:f8:fa:ef:ac:9c:
                    72:f0:37:cb:2f:37:cf:90:a8:27:51:86:c6:d7:78:
                    08:8f:7e:25:a2:15:70:a2:fb:1c:b6:15:5e:a0:97:
                    8b:81:4c:09:28:8a:27:3b:94:bc:71:db:5b:71:37:
                    9a:2b:16:e0:6f:b5:c9:f5:4b:4f:20:ba:65:cf:af:
                    ad:ad
                Exponent: 65537 (0x10001)
        X509v3 extensions:
            X509v3 Key Usage: 
                Digital Signature, Key Encipherment
            X509v3 Basic Constraints: 
                CA:FALSE
            Netscape Cert Type: 
                SSL Server
            Netscape Comment: 
                OpenSSL Generated Server Certificate
            X509v3 Subject Key Identifier: 
                E5:25:6D:3E:AF:0D:DD:3F:4C:F2:45:19:39:D5:14:DB:7E:9C:C0:AD
            X509v3 Authority Key Identifier: 
                keyid:F4:A7:C0:CC:91:46:AF:64:F3:91:F2:27:F8:C8:B2:6F:8A:87:32:73
                DirName:/C=DE/ST=Hessen/O=privacyidea/CN=CA001
                serial:FB:C8:EB:AC:83:CD:12:07

            X509v3 Extended Key Usage: 
                TLS Web Server Authentication
    Signature Algorithm: sha256WithRSAEncryption
         9f:dc:e7:2d:15:09:97:3b:50:51:eb:d1:e7:d5:67:95:44:17:
         e5:9f:cb:a0:db:aa:aa:98:45:c3:7b:58:f5:58:d2:70:2f:96:
         d5:34:ab:32:ca:ea:ac:81:e9:4b:ec:0a:cf:33:9e:08:03:3c:
         27:34:9f:5b:8e:c6:84:f9:ed:98:0a:d2:49:23:60:64:1a:24:
         4b:5d:64:58:3b:b3:12:0b:85:fd:62:13:62:86:ce:ac:45:d7:
         dc:a4:a3:ec:67:99:f0:3e:9f:99:46:17:cf:7c:44:41:c8:dd:
         14:65:02:81:46:b6:bb:95:77:9b:c4:3d:6f:b7:c6:ae:fa:09:
         42:00:41:b7:ef:3b:fb:e1:c4:85:76:e2:42:ad:a4:fb:4f:e1:
         cf:af:05:da:ed:e4:27:a6:a3:87:fd:e8:48:e9:bc:e0:a3:69:
         22:25:e6:c4:7f:59:3c:16:6f:34:8e:40:9c:5f:3d:7b:59:31:
         20:5a:61:98:ee:be:8b:ee:b3:0c:6a:f2:88:af:35:0e:6e:4b:
         0b:cb:21:cb:cd:3a:ec:1e:f5:1f:87:8b:97:c1:bc:2b:c7:4e:
         d7:48:88:ff:a7:3f:b1:a1:87:2c:6a:51:eb:b7:f0:e4:63:3b:
         7d:ad:2f:ac:ce:10:f8:00:56:c9:cb:d6:8d:bb:4a:8d:8f:8b:
         bd:b8:2f:ee
-----BEGIN CERTIFICATE-----
MIIECTCCAvGgAwIBAgIEEAAA4zANBgkqhkiG9w0BAQsFADBEMQswCQYDVQQGEwJE
RTEPMA0GA1UECAwGSGVzc2VuMRQwEgYDVQQKDAtwcml2YWN5aWRlYTEOMAwGA1UE
AwwFQ0EwMDEwHhcNMTkwODE1MDkyNzAwWhcNMjAwODE0MDkyNzAwWjA3MRMwEQYD
VQQDDApTdGV2ZSBUZXN0MSAwHgYJKoZIhvcNAQkBFhFzdGV2ZUBvcGVuc3NsLm9y
ZzCCASIwDQYJKoZIhvcNAQEBBQADggEPADCCAQoCggEBANKBiSBRSA9z9BEyJNUf
HP1c9bbmxfBSgdzSr2ZKfJMxYVyv0W0GcANgfHIMiN1JzZ4CbNJa11MP89q+aWS1
DwwA47NQR6Ozm7oTUNZYWkurOeARygonZwN4ImZtkh4bXEmu5mvRjjudBtPGrE1T
QxCr6JbBh4KXmY8g05kSNzGE4Yr/KQNfIpA+f5vgIMGt3K5MORoxlhcCjLLZtA0g
Ept9hlT9M/3BKmJG+GCWz24BbyLfE0fnl+wFciOjYvj676yccvA3yy83z5CoJ1GG
xtd4CI9+JaIVcKL7HLYVXqCXi4FMCSiKJzuUvHHbW3E3misW4G+1yfVLTyC6Zc+v
ra0CAwEAAaOCAQ4wggEKMAsGA1UdDwQEAwIFoDAJBgNVHRMEAjAAMBEGCWCGSAGG
+EIBAQQEAwIGQDAzBglghkgBhvhCAQ0EJhYkT3BlblNTTCBHZW5lcmF0ZWQgU2Vy
dmVyIENlcnRpZmljYXRlMB0GA1UdDgQWBBTlJW0+rw3dP0zyRRk51RTbfpzArTB0
BgNVHSMEbTBrgBT0p8DMkUavZPOR8if4yLJviocyc6FIpEYwRDELMAkGA1UEBhMC
REUxDzANBgNVBAgMBkhlc3NlbjEUMBIGA1UECgwLcHJpdmFjeWlkZWExDjAMBgNV
BAMMBUNBMDAxggkA+8jrrIPNEgcwEwYDVR0lBAwwCgYIKwYBBQUHAwEwDQYJKoZI
hvcNAQELBQADggEBAJ/c5y0VCZc7UFHr0efVZ5VEF+Wfy6DbqqqYRcN7WPVY0nAv
ltU0qzLK6qyB6UvsCs8znggDPCc0n1uOxoT57ZgK0kkjYGQaJEtdZFg7sxILhf1i
E2KGzqxF19yko+xnmfA+n5lGF898REHI3RRlAoFGtruVd5vEPW+3xq76CUIAQbfv
O/vhxIV24kKtpPtP4c+vBdrt5Cemo4f96EjpvOCjaSIl5sR/WTwWbzSOQJxfPXtZ
MSBaYZjuvovuswxq8oivNQ5uSwvLIcvNOuwe9R+Hi5fBvCvHTtdIiP+nP7Ghhyxq
Ueu38ORjO32tL6zOEPgAVsnL1o27So2Pi724L+4=
-----END CERTIFICATE-----
