Certificate:
    Data:
        Version: 3 (0x2)
        Serial Number: 268435674 (0x100000da)
        Signature Algorithm: sha256WithRSAEncryption
        Issuer: C=DE, ST=Hessen, O=privacyidea, CN=CA001
        Validity
            Not Before: Aug 28 10:00:03 2019 GMT
            Not After : Aug 27 10:00:03 2020 GMT
        Subject: OU=realm1, CN=cornelius/emailAddress=user@localhost.localdomain
        Subject Public Key Info:
            Public Key Algorithm: rsaEncryption
                RSA Public-Key: (2048 bit)
                Modulus:
                    00:b9:7c:2e:9b:66:2d:71:bf:cb:4c:f8:7b:54:b4:
                    90:e8:2f:1b:15:26:77:d3:ad:46:b5:e7:e1:aa:ce:
                    df:72:42:44:7f:a8:e5:f3:c6:0a:17:3d:f1:ac:46:
                    01:e0:96:24:7c:60:ae:f1:e5:5a:4e:d0:11:d7:4e:
                    f0:0d:d1:54:91:75:bf:ed:29:33:24:17:b9:fc:75:
                    fa:70:c3:3a:1e:26:a6:5b:c4:08:f2:ba:83:cf:1a:
                    af:a3:52:d5:89:00:06:3e:7d:1a:27:8e:88:b6:d9:
                    0b:5a:54:33:40:e2:ab:31:bd:49:a5:1a:58:37:2f:
                    ad:a6:e1:8d:38:a1:98:66:47:4c:77:b9:42:a4:dc:
                    a0:a8:04:fc:8c:c5:97:5a:95:8d:87:45:f0:3b:47:
                    94:63:01:6c:42:4d:7d:4e:67:6b:1f:10:c4:75:1c:
                    32:9a:bb:ed:a1:f2:c5:49:c5:d2:de:c3:6c:8a:ee:
                    ce:03:f0:50:63:9b:16:6d:bb:ba:6a:b6:a8:26:02:
                    57:a1:a9:7d:a0:eb:cc:d1:2b:27:80:c4:b0:c0:63:
                    b8:e2:04:9d:9c:e9:69:69:20:7d:6f:0f:a5:29:1b:
                    a7:69:4d:10:77:6d:7a:95:73:75:e1:bb:7d:29:9b:
                    a1:b1:da:c3:8e:26:ac:a6:d0:58:1d:b5:88:de:bc:
                    59:35
                Exponent: 65537 (0x10001)
        X509v3 extensions:
            X509v3 Key Usage: 
                Digital Signature, Key Encipherment
            X509v3 Basic Constraints: 
                CA:FALSE
            Netscape Cert Type: 
                SSL Server
            Netscape Comment: 
                OpenSSL Generated Server Certificate
            X509v3 Subject Key Identifier: 
                3F:77:3C:FC:92:E5:21:28:E7:05:A4:36:08:29:E0:C0:75:E9:C2:00
            X509v3 Authority Key Identifier: 
                keyid:F4:A7:C0:CC:91:46:AF:64:F3:91:F2:27:F8:C8:B2:6F:8A:87:32:73
                DirName:/C=DE/ST=Hessen/O=privacyidea/CN=CA001
                serial:FB:C8:EB:AC:83:CD:12:07

            X509v3 Extended Key Usage: 
                TLS Web Server Authentication
    Signature Algorithm: sha256WithRSAEncryption
         38:c6:85:b3:24:32:d6:94:a9:2f:35:79:c5:a9:38:6a:a3:f6:
         1d:8c:8e:a6:d6:72:78:95:63:d9:75:10:7e:e1:3f:ec:0d:2a:
         ef:9c:92:a8:a6:76:7c:c1:6e:2d:ca:b4:c9:8f:69:98:66:aa:
         16:0f:86:a9:06:5e:5b:90:2a:98:98:48:1a:cb:0b:11:70:f3:
         e9:c3:24:34:6a:62:3c:ac:91:fa:db:52:52:e7:d0:bf:92:8c:
         41:58:59:a7:17:8e:e0:64:90:d7:3c:74:da:b7:5b:d0:4c:76:
         a7:72:55:e4:3d:19:c1:bc:bb:a8:be:e5:d8:fc:90:9b:94:4b:
         be:62:ff:d1:0b:b9:0e:57:f1:18:3c:8b:6b:2e:d1:7a:64:60:
         82:7a:29:27:cc:30:d8:d8:bb:f7:18:cb:24:df:92:51:41:f8:
         83:ac:fb:f9:f8:da:5f:0f:5d:0f:40:fc:80:a0:a7:d2:c6:26:
         aa:36:b0:1b:b0:1c:44:ec:40:72:6c:51:71:8a:eb:e4:a7:50:
         91:e5:33:17:16:3a:22:73:57:51:0d:53:a2:de:44:63:47:ec:
         a1:69:50:a8:10:ad:b0:34:7f:7b:04:fe:fd:a1:9e:56:71:4f:
         f0:88:87:2c:9d:81:d9:b8:d5:6e:4d:92:48:51:5b:e5:4a:72:
         74:d2:83:6e
-----BEGIN CERTIFICATE-----
MIIEIjCCAwqgAwIBAgIEEAAA2jANBgkqhkiG9w0BAQsFADBEMQswCQYDVQQGEwJE
RTEPMA0GA1UECAwGSGVzc2VuMRQwEgYDVQQKDAtwcml2YWN5aWRlYTEOMAwGA1UE
AwwFQ0EwMDEwHhcNMTkwODI4MTAwMDAzWhcNMjAwODI3MTAwMDAzWjBQMQ8wDQYD
VQQLDAZyZWFsbTExEjAQBgNVBAMMCWNvcm5lbGl1czEpMCcGCSqGSIb3DQEJARYa
dXNlckBsb2NhbGhvc3QubG9jYWxkb21haW4wggEiMA0GCSqGSIb3DQEBAQUAA4IB
DwAwggEKAoIBAQC5fC6bZi1xv8tM+HtUtJDoLxsVJnfTrUa15+Gqzt9yQkR/qOXz
xgoXPfGsRgHgliR8YK7x5VpO0BHXTvAN0VSRdb/tKTMkF7n8dfpwwzoeJqZbxAjy
uoPPGq+jUtWJAAY+fRonjoi22QtaVDNA4qsxvUmlGlg3L62m4Y04oZhmR0x3uUKk
3KCoBPyMxZdalY2HRfA7R5RjAWxCTX1OZ2sfEMR1HDKau+2h8sVJxdLew2yK7s4D
8FBjmxZtu7pqtqgmAlehqX2g68zRKyeAxLDAY7jiBJ2c6WlpIH1vD6UpG6dpTRB3
bXqVc3Xhu30pm6Gx2sOOJqym0FgdtYjevFk1AgMBAAGjggEOMIIBCjALBgNVHQ8E
BAMCBaAwCQYDVR0TBAIwADARBglghkgBhvhCAQEEBAMCBkAwMwYJYIZIAYb4QgEN
BCYWJE9wZW5TU0wgR2VuZXJhdGVkIFNlcnZlciBDZXJ0aWZpY2F0ZTAdBgNVHQ4E
FgQUP3c8/JLlISjnBaQ2CCngwHXpwgAwdAYDVR0jBG0wa4AU9KfAzJFGr2TzkfIn
+Miyb4qHMnOhSKRGMEQxCzAJBgNVBAYTAkRFMQ8wDQYDVQQIDAZIZXNzZW4xFDAS
BgNVBAoMC3ByaXZhY3lpZGVhMQ4wDAYDVQQDDAVDQTAwMYIJAPvI66yDzRIHMBMG
A1UdJQQMMAoGCCsGAQUFBwMBMA0GCSqGSIb3DQEBCwUAA4IBAQA4xoWzJDLWlKkv
NXnFqThqo/YdjI6m1nJ4lWPZdRB+4T/sDSrvnJKopnZ8wW4tyrTJj2mYZqoWD4ap
Bl5bkCqYmEgaywsRcPPpwyQ0amI8rJH621JS59C/koxBWFmnF47gZJDXPHTat1vQ
THanclXkPRnBvLuovuXY/JCblEu+Yv/RC7kOV/EYPItrLtF6ZGCCeiknzDDY2Lv3
GMsk35JRQfiDrPv5+NpfD10PQPyAoKfSxiaqNrAbsBxE7EBybFFxiuvkp1CR5TMX
Fjoic1dRDVOi3kRjR+yhaVCoEK2wNH97BP79oZ5WcU/wiIcsnYHZuNVuTZJIUVvl
SnJ00oNu
-----END CERTIFICATE-----
