Certificate:
    Data:
        Version: 3 (0x2)
        Serial Number: 268435665 (0x100000d1)
        Signature Algorithm: sha256WithRSAEncryption
        Issuer: C=DE, ST=Hessen, O=privacyidea, CN=CA001
        Validity
            Not Before: Sep  3 21:59:57 2019 GMT
            Not After : Sep  2 21:59:57 2020 GMT
        Subject: OU=realm1, CN=cornelius/emailAddress=user@localhost.localdomain
        Subject Public Key Info:
            Public Key Algorithm: rsaEncryption
                RSA Public-Key: (2048 bit)
                Modulus:
                    00:af:df:85:0f:bf:ab:93:ec:9d:55:0e:ea:cb:5e:
                    db:f5:80:15:02:72:ac:f8:2d:98:1b:d0:ae:14:44:
                    40:ee:4b:ae:d3:8b:76:61:63:e5:e4:57:96:74:59:
                    15:3c:c1:10:91:0f:9d:83:68:6c:01:25:e2:76:75:
                    e4:65:8d:5a:ff:a1:46:5c:de:0c:52:c1:44:ed:6d:
                    f4:81:c8:3f:ba:0a:61:fe:a5:83:a9:75:22:0d:fa:
                    ca:3a:07:69:4d:93:e0:f4:e9:ed:07:39:6e:28:9f:
                    13:d6:85:9d:a0:63:87:27:d5:5b:8b:ed:a6:a7:2a:
                    50:b8:9c:ba:be:00:c8:96:39:03:91:a1:62:a8:13:
                    d4:6c:78:31:e3:87:b3:df:2b:56:2b:f4:d7:8a:3b:
                    53:ae:2e:25:f8:fe:fe:60:35:71:f3:ac:d0:11:74:
                    67:c0:32:a7:1e:14:a2:33:52:36:ba:fa:2c:5d:a8:
                    53:78:ba:d7:f6:3e:16:6e:62:15:c3:0f:7d:a3:d4:
                    bf:7b:6d:d4:96:6a:95:f9:12:98:91:f6:98:71:89:
                    b2:63:ac:eb:a3:f0:96:96:1b:2f:2b:ab:33:5e:89:
                    7b:44:e9:95:57:8e:87:d9:37:fc:33:e0:56:8e:2d:
                    39:18:d1:d7:cf:99:5a:f6:ff:32:ed:46:93:7b:e5:
                    40:61
                Exponent: 65537 (0x10001)
        X509v3 extensions:
            X509v3 Key Usage: 
                Digital Signature, Key Encipherment
            X509v3 Basic Constraints: 
                CA:FALSE
            Netscape Cert Type: 
                SSL Server
            Netscape Comment: 
                OpenSSL Generated Server Certificate
            X509v3 Subject Key Identifier: 
                40:09:91:ED:F6:94:6E:3A:9C:DC:D9:27:53:E8:7D:D8:DB:55:BC:AA
            X509v3 Authority Key Identifier: 
                keyid:F4:A7:C0:CC:91:46:AF:64:F3:91:F2:27:F8:C8:B2:6F:8A:87:32:73
                DirName:/C=DE/ST=Hessen/O=privacyidea/CN=CA001
                serial:FB:C8:EB:AC:83:CD:12:07

            X509v3 Extended Key Usage: 
                TLS Web Server Authentication
    Signature Algorithm: sha256WithRSAEncryption
         0d:10:53:19:20:aa:06:1e:6b:f0:68:07:49:ec:89:09:90:29:
         1f:9e:27:02:60:75:ad:4a:6d:30:83:df:00:c3:db:25:3d:65:
         a1:7a:52:d6:f8:e7:f0:0f:a8:c3:1b:0d:ab:b5:1a:91:ff:ab:
         87:db:da:97:b2:5a:45:bb:cf:33:ce:97:0d:40:51:29:a7:5d:
         c8:72:65:03:8d:10:2e:d7:b6:a0:01:00:77:70:c0:db:5e:7d:
         7e:57:82:0e:1d:e4:f1:2a:41:bb:54:55:4b:56:86:d7:7e:d7:
         36:ff:0b:06:9b:fa:14:ad:fd:43:03:a0:e8:18:dc:f5:a2:5a:
         bd:4a:d5:86:1e:26:68:07:94:1c:a7:c5:c4:37:fc:bc:f3:47:
         e8:d0:b8:9d:a9:b7:0a:04:03:21:7e:80:c9:5d:96:7e:a3:1b:
         26:be:5b:5a:f0:65:1b:e8:0e:ba:c2:51:34:d3:ac:59:97:0a:
         42:85:57:df:7c:4b:18:16:84:dd:88:16:af:88:34:35:79:ff:
         67:18:68:41:c4:d4:85:24:04:60:fb:8d:4b:b7:bf:f0:36:c7:
         a4:48:c6:94:99:e2:61:70:b9:00:6c:01:00:45:37:f2:7e:de:
         40:2d:f5:06:5f:93:b8:d9:de:08:0d:88:07:ca:95:91:1d:cb:
         c5:7f:1c:65
-----BEGIN CERTIFICATE-----
MIIEIjCCAwqgAwIBAgIEEAAA0TANBgkqhkiG9w0BAQsFADBEMQswCQYDVQQGEwJE
RTEPMA0GA1UECAwGSGVzc2VuMRQwEgYDVQQKDAtwcml2YWN5aWRlYTEOMAwGA1UE
AwwFQ0EwMDEwHhcNMTkwOTAzMjE1OTU3WhcNMjAwOTAyMjE1OTU3WjBQMQ8wDQYD
VQQLDAZyZWFsbTExEjAQBgNVBAMMCWNvcm5lbGl1czEpMCcGCSqGSIb3DQEJARYa
dXNlckBsb2NhbGhvc3QubG9jYWxkb21haW4wggEiMA0GCSqGSIb3DQEBAQUAA4IB
DwAwggEKAoIBAQCv34UPv6uT7J1VDurLXtv1gBUCcqz4LZgb0K4UREDuS67Ti3Zh
Y+XkV5Z0WRU8wRCRD52DaGwBJeJ2deRljVr/oUZc3gxSwUTtbfSByD+6CmH+pYOp
dSIN+so6B2lNk+D06e0HOW4onxPWhZ2gY4cn1VuL7aanKlC4nLq+AMiWOQORoWKo
E9RseDHjh7PfK1Yr9NeKO1OuLiX4/v5gNXHzrNARdGfAMqceFKIzUja6+ixdqFN4
utf2PhZuYhXDD32j1L97bdSWapX5EpiR9phxibJjrOuj8JaWGy8rqzNeiXtE6ZVX
jofZN/wz4FaOLTkY0dfPmVr2/zLtRpN75UBhAgMBAAGjggEOMIIBCjALBgNVHQ8E
BAMCBaAwCQYDVR0TBAIwADARBglghkgBhvhCAQEEBAMCBkAwMwYJYIZIAYb4QgEN
BCYWJE9wZW5TU0wgR2VuZXJhdGVkIFNlcnZlciBDZXJ0aWZpY2F0ZTAdBgNVHQ4E
FgQUQAmR7faUbjqc3NknU+h92NtVvKowdAYDVR0jBG0wa4AU9KfAzJFGr2TzkfIn
+Miyb4qHMnOhSKRGMEQxCzAJBgNVBAYTAkRFMQ8wDQYDVQQIDAZIZXNzZW4xFDAS
BgNVBAoMC3ByaXZhY3lpZGVhMQ4wDAYDVQQDDAVDQTAwMYIJAPvI66yDzRIHMBMG
A1UdJQQMMAoGCCsGAQUFBwMBMA0GCSqGSIb3DQEBCwUAA4IBAQANEFMZIKoGHmvw
aAdJ7IkJkCkfnicCYHWtSm0wg98Aw9slPWWhelLW+OfwD6jDGw2rtRqR/6uH29qX
slpFu88zzpcNQFEpp13IcmUDjRAu17agAQB3cMDbXn1+V4IOHeTxKkG7VFVLVobX
ftc2/wsGm/oUrf1DA6DoGNz1olq9StWGHiZoB5Qcp8XEN/y880fo0LidqbcKBAMh
foDJXZZ+oxsmvlta8GUb6A66wlE006xZlwpChVfffEsYFoTdiBaviDQ1ef9nGGhB
xNSFJARg+41Lt7/wNsekSMaUmeJhcLkAbAEARTfyft5ALfUGX5O42d4IDYgHypWR
HcvFfxxl
-----END CERTIFICATE-----
