Certificate:
    Data:
        Version: 3 (0x2)
        Serial Number: 268435679 (0x100000df)
        Signature Algorithm: sha256WithRSAEncryption
        Issuer: C=DE, ST=Hessen, O=privacyidea, CN=CA001
        Validity
            Not Before: Aug 28 10:34:04 2019 GMT
            Not After : Aug 27 10:34:04 2020 GMT
        Subject: C=DE, ST=Hessen, O=privacyidea, CN=requester.localdomain
        Subject Public Key Info:
            Public Key Algorithm: rsaEncryption
                RSA Public-Key: (2048 bit)
                Modulus:
                    00:cd:be:14:4f:fa:ce:01:3f:42:22:1b:1d:9c:af:
                    dd:92:d2:7f:db:6c:b7:3e:39:43:43:6b:13:03:f1:
                    05:f4:07:74:bc:76:69:28:0b:af:19:8e:d7:fc:e3:
                    cd:c6:58:f2:ca:7f:08:6d:53:fc:07:02:44:24:c6:
                    b4:34:4c:8c:04:fe:33:0e:40:e2:20:ba:02:73:5a:
                    f7:f5:4f:63:6e:cc:c6:b6:df:54:1d:37:39:7d:51:
                    36:26:5f:bd:dc:3f:a8:8b:6b:a2:ae:b6:9d:d6:21:
                    e7:df:41:b8:7a:28:2a:68:48:ca:a8:2d:ed:e1:e9:
                    46:5e:5a:72:6d:b4:84:38:87:91:fd:94:11:0b:28:
                    84:c6:c2:2f:2a:fb:01:f9:36:7a:09:75:d1:33:88:
                    3c:73:41:5b:c8:bf:94:89:70:a1:f0:c0:b9:2e:50:
                    53:1e:b1:17:64:69:f4:2d:81:e0:a9:0d:0e:32:e9:
                    ba:55:8a:85:f1:1b:6f:49:79:b4:7f:88:c3:0d:3e:
                    54:88:9b:3d:1f:38:8c:04:f3:ee:6a:63:2b:f5:c6:
                    db:b4:83:aa:c4:78:41:3a:7d:4b:e1:c8:3e:71:ca:
                    1b:61:59:ea:c6:c4:ca:32:5e:c9:e9:bf:12:29:e6:
                    c6:c3:63:fe:a0:55:da:7a:f1:60:98:4d:26:ed:fa:
                    70:2d
                Exponent: 65537 (0x10001)
        X509v3 extensions:
            X509v3 Key Usage: 
                Digital Signature, Key Encipherment
            X509v3 Basic Constraints: 
                CA:FALSE
            Netscape Cert Type: 
                SSL Server
            Netscape Comment: 
                OpenSSL Generated Server Certificate
            X509v3 Subject Key Identifier: 
                53:3F:ED:5D:09:07:B3:65:7B:AB:45:C9:24:5B:09:77:80:0A:96:ED
            X509v3 Authority Key Identifier: 
                keyid:F4:A7:C0:CC:91:46:AF:64:F3:91:F2:27:F8:C8:B2:6F:8A:87:32:73
                DirName:/C=DE/ST=Hessen/O=privacyidea/CN=CA001
                serial:FB:C8:EB:AC:83:CD:12:07

            X509v3 Extended Key Usage: 
                TLS Web Server Authentication
    Signature Algorithm: sha256WithRSAEncryption
         8a:81:0c:bd:bd:c8:2a:58:fd:ee:e4:55:44:4e:57:2b:59:3b:
         99:29:7d:a7:86:3a:d0:9b:a8:8b:ae:07:09:23:13:5c:78:09:
         4e:b5:cd:61:23:3f:db:13:06:96:f9:a6:0a:40:e8:2a:dc:87:
         b3:d6:5d:1c:a7:da:a4:40:3a:a4:8b:63:62:7b:76:0b:61:ae:
         30:34:a2:f2:8f:b6:83:e0:bb:eb:4c:f0:3f:e4:f9:7e:ba:ea:
         40:45:5e:df:4c:1f:41:44:6e:f7:e9:6b:60:5e:93:33:23:fd:
         3b:c6:91:73:b3:9d:83:1c:7f:fb:63:b0:fb:5d:33:f5:09:7c:
         4c:67:f6:00:4e:61:f5:6f:3c:08:7c:7f:92:fc:50:e4:4b:01:
         98:e4:40:21:5c:26:0e:52:ea:bc:8a:77:6d:c7:4e:7d:5c:45:
         d9:95:c8:c6:e4:aa:52:e0:3c:b8:f6:31:9d:fe:a9:ce:b7:1d:
         93:4d:20:02:ad:00:c2:77:9a:ad:9d:4a:87:9a:57:9b:8f:9e:
         03:ca:1c:d8:47:e5:9b:cd:06:99:db:c1:f1:ce:00:b2:cd:0d:
         24:27:6e:29:75:6b:e8:b7:51:b4:eb:7a:74:fa:d8:cd:d4:21:
         f6:99:ec:cb:d3:5f:50:e0:f7:3b:08:78:69:c5:21:48:bd:5c:
         48:85:3b:c3
-----BEGIN CERTIFICATE-----
MIIEJjCCAw6gAwIBAgIEEAAA3zANBgkqhkiG9w0BAQsFADBEMQswCQYDVQQGEwJE
RTEPMA0GA1UECAwGSGVzc2VuMRQwEgYDVQQKDAtwcml2YWN5aWRlYTEOMAwGA1UE
AwwFQ0EwMDEwHhcNMTkwODI4MTAzNDA0WhcNMjAwODI3MTAzNDA0WjBUMQswCQYD
VQQGEwJERTEPMA0GA1UECAwGSGVzc2VuMRQwEgYDVQQKDAtwcml2YWN5aWRlYTEe
MBwGA1UEAwwVcmVxdWVzdGVyLmxvY2FsZG9tYWluMIIBIjANBgkqhkiG9w0BAQEF
AAOCAQ8AMIIBCgKCAQEAzb4UT/rOAT9CIhsdnK/dktJ/22y3PjlDQ2sTA/EF9Ad0
vHZpKAuvGY7X/OPNxljyyn8IbVP8BwJEJMa0NEyMBP4zDkDiILoCc1r39U9jbszG
tt9UHTc5fVE2Jl+93D+oi2uirrad1iHn30G4eigqaEjKqC3t4elGXlpybbSEOIeR
/ZQRCyiExsIvKvsB+TZ6CXXRM4g8c0FbyL+UiXCh8MC5LlBTHrEXZGn0LYHgqQ0O
Mum6VYqF8RtvSXm0f4jDDT5UiJs9HziMBPPuamMr9cbbtIOqxHhBOn1L4cg+ccob
YVnqxsTKMl7J6b8SKebGw2P+oFXaevFgmE0m7fpwLQIDAQABo4IBDjCCAQowCwYD
VR0PBAQDAgWgMAkGA1UdEwQCMAAwEQYJYIZIAYb4QgEBBAQDAgZAMDMGCWCGSAGG
+EIBDQQmFiRPcGVuU1NMIEdlbmVyYXRlZCBTZXJ2ZXIgQ2VydGlmaWNhdGUwHQYD
VR0OBBYEFFM/7V0JB7Nle6tFySRbCXeACpbtMHQGA1UdIwRtMGuAFPSnwMyRRq9k
85HyJ/jIsm+KhzJzoUikRjBEMQswCQYDVQQGEwJERTEPMA0GA1UECAwGSGVzc2Vu
MRQwEgYDVQQKDAtwcml2YWN5aWRlYTEOMAwGA1UEAwwFQ0EwMDGCCQD7yOusg80S
BzATBgNVHSUEDDAKBggrBgEFBQcDATANBgkqhkiG9w0BAQsFAAOCAQEAioEMvb3I
Klj97uRVRE5XK1k7mSl9p4Y60Juoi64HCSMTXHgJTrXNYSM/2xMGlvmmCkDoKtyH
s9ZdHKfapEA6pItjYnt2C2GuMDSi8o+2g+C760zwP+T5frrqQEVe30wfQURu9+lr
YF6TMyP9O8aRc7Odgxx/+2Ow+10z9Ql8TGf2AE5h9W88CHx/kvxQ5EsBmORAIVwm
DlLqvIp3bcdOfVxF2ZXIxuSqUuA8uPYxnf6pzrcdk00gAq0AwnearZ1Kh5pXm4+e
A8oc2Eflm80GmdvB8c4Ass0NJCduKXVr6LdRtOt6dPrYzdQh9pnsy9NfUOD3Owh4
acUhSL1cSIU7ww==
-----END CERTIFICATE-----
