Certificate:
    Data:
        Version: 3 (0x2)
        Serial Number: 268435681 (0x100000e1)
        Signature Algorithm: sha256WithRSAEncryption
        Issuer: C=DE, ST=Hessen, O=privacyidea, CN=CA001
        Validity
            Not Before: Aug 28 10:35:27 2019 GMT
            Not After : Aug 27 10:35:27 2020 GMT
        Subject: C=DE, ST=Hessen, O=privacyidea, CN=requester.localdomain
        Subject Public Key Info:
            Public Key Algorithm: rsaEncryption
                RSA Public-Key: (2048 bit)
                Modulus:
                    00:cd:be:14:4f:fa:ce:01:3f:42:22:1b:1d:9c:af:
                    dd:92:d2:7f:db:6c:b7:3e:39:43:43:6b:13:03:f1:
                    05:f4:07:74:bc:76:69:28:0b:af:19:8e:d7:fc:e3:
                    cd:c6:58:f2:ca:7f:08:6d:53:fc:07:02:44:24:c6:
                    b4:34:4c:8c:04:fe:33:0e:40:e2:20:ba:02:73:5a:
                    f7:f5:4f:63:6e:cc:c6:b6:df:54:1d:37:39:7d:51:
                    36:26:5f:bd:dc:3f:a8:8b:6b:a2:ae:b6:9d:d6:21:
                    e7:df:41:b8:7a:28:2a:68:48:ca:a8:2d:ed:e1:e9:
                    46:5e:5a:72:6d:b4:84:38:87:91:fd:94:11:0b:28:
                    84:c6:c2:2f:2a:fb:01:f9:36:7a:09:75:d1:33:88:
                    3c:73:41:5b:c8:bf:94:89:70:a1:f0:c0:b9:2e:50:
                    53:1e:b1:17:64:69:f4:2d:81:e0:a9:0d:0e:32:e9:
                    ba:55:8a:85:f1:1b:6f:49:79:b4:7f:88:c3:0d:3e:
                    54:88:9b:3d:1f:38:8c:04:f3:ee:6a:63:2b:f5:c6:
                    db:b4:83:aa:c4:78:41:3a:7d:4b:e1:c8:3e:71:ca:
                    1b:61:59:ea:c6:c4:ca:32:5e:c9:e9:bf:12:29:e6:
                    c6:c3:63:fe:a0:55:da:7a:f1:60:98:4d:26:ed:fa:
                    70:2d
                Exponent: 65537 (0x10001)
        X509v3 extensions:
            X509v3 Key Usage: 
                Digital Signature, Key Encipherment
            X509v3 Basic Constraints: 
                CA:FALSE
            Netscape Cert Type: 
                SSL Server
            Netscape Comment: 
                OpenSSL Generated Server Certificate
            X509v3 Subject Key Identifier: 
                53:3F:ED:5D:09:07:B3:65:7B:AB:45:C9:24:5B:09:77:80:0A:96:ED
            X509v3 Authority Key Identifier: 
                keyid:F4:A7:C0:CC:91:46:AF:64:F3:91:F2:27:F8:C8:B2:6F:8A:87:32:73
                DirName:/C=DE/ST=Hessen/O=privacyidea/CN=CA001
                serial:FB:C8:EB:AC:83:CD:12:07

            X509v3 Extended Key Usage: 
                TLS Web Server Authentication
    Signature Algorithm: sha256WithRSAEncryption
         bd:76:4b:48:79:2a:63:1b:76:72:70:6e:f6:6b:7b:e1:4f:b4:
         34:53:47:35:87:16:ae:42:72:6d:28:fd:ea:9c:27:e5:1c:81:
         06:73:8e:96:56:c8:96:8f:1f:d0:d2:1b:9b:ab:79:e2:c3:df:
         7a:2d:5b:39:36:1f:b6:b4:f5:dd:af:44:df:31:8b:2c:0b:db:
         89:39:63:dc:64:ce:25:f0:c7:c2:20:16:7d:6c:eb:56:90:72:
         87:9d:fb:e1:6f:e6:ba:b8:12:ba:4f:19:23:84:e1:fd:48:95:
         f5:df:b1:36:e6:3e:2c:f7:15:63:33:1d:55:1d:8e:76:7b:67:
         b8:99:06:07:63:4a:d5:b1:3b:df:4f:ab:d3:0c:a1:41:55:d7:
         ad:a4:c6:4f:89:dc:98:9e:54:ae:d7:c6:ae:8f:6d:f0:57:f0:
         46:76:29:f0:07:c8:68:8d:2a:36:f0:e0:73:8f:0a:68:93:b8:
         d2:05:e9:0a:9e:76:a8:0e:23:07:ae:50:e2:2e:0b:05:2a:8b:
         16:9a:c8:dc:7b:41:d2:ba:25:dc:1b:8f:43:09:d9:88:ca:13:
         12:c6:1a:1b:13:f8:e8:17:70:9f:05:82:de:53:8c:50:53:ca:
         7e:44:20:e7:de:be:a2:34:97:f6:65:28:1f:d6:78:ed:71:55:
         a5:49:1b:b6
-----BEGIN CERTIFICATE-----
MIIEJjCCAw6gAwIBAgIEEAAA4TANBgkqhkiG9w0BAQsFADBEMQswCQYDVQQGEwJE
RTEPMA0GA1UECAwGSGVzc2VuMRQwEgYDVQQKDAtwcml2YWN5aWRlYTEOMAwGA1UE
AwwFQ0EwMDEwHhcNMTkwODI4MTAzNTI3WhcNMjAwODI3MTAzNTI3WjBUMQswCQYD
VQQGEwJERTEPMA0GA1UECAwGSGVzc2VuMRQwEgYDVQQKDAtwcml2YWN5aWRlYTEe
MBwGA1UEAwwVcmVxdWVzdGVyLmxvY2FsZG9tYWluMIIBIjANBgkqhkiG9w0BAQEF
AAOCAQ8AMIIBCgKCAQEAzb4UT/rOAT9CIhsdnK/dktJ/22y3PjlDQ2sTA/EF9Ad0
vHZpKAuvGY7X/OPNxljyyn8IbVP8BwJEJMa0NEyMBP4zDkDiILoCc1r39U9jbszG
tt9UHTc5fVE2Jl+93D+oi2uirrad1iHn30G4eigqaEjKqC3t4elGXlpybbSEOIeR
/ZQRCyiExsIvKvsB+TZ6CXXRM4g8c0FbyL+UiXCh8MC5LlBTHrEXZGn0LYHgqQ0O
Mum6VYqF8RtvSXm0f4jDDT5UiJs9HziMBPPuamMr9cbbtIOqxHhBOn1L4cg+ccob
YVnqxsTKMl7J6b8SKebGw2P+oFXaevFgmE0m7fpwLQIDAQABo4IBDjCCAQowCwYD
VR0PBAQDAgWgMAkGA1UdEwQCMAAwEQYJYIZIAYb4QgEBBAQDAgZAMDMGCWCGSAGG
+EIBDQQmFiRPcGVuU1NMIEdlbmVyYXRlZCBTZXJ2ZXIgQ2VydGlmaWNhdGUwHQYD
VR0OBBYEFFM/7V0JB7Nle6tFySRbCXeACpbtMHQGA1UdIwRtMGuAFPSnwMyRRq9k
85HyJ/jIsm+KhzJzoUikRjBEMQswCQYDVQQGEwJERTEPMA0GA1UECAwGSGVzc2Vu
MRQwEgYDVQQKDAtwcml2YWN5aWRlYTEOMAwGA1UEAwwFQ0EwMDGCCQD7yOusg80S
BzATBgNVHSUEDDAKBggrBgEFBQcDATANBgkqhkiG9w0BAQsFAAOCAQEAvXZLSHkq
Yxt2cnBu9mt74U+0NFNHNYcWrkJybSj96pwn5RyBBnOOllbIlo8f0NIbm6t54sPf
ei1bOTYftrT13a9E3zGLLAvbiTlj3GTOJfDHwiAWfWzrVpByh5374W/murgSuk8Z
I4Th/UiV9d+xNuY+LPcVYzMdVR2OdntnuJkGB2NK1bE730+r0wyhQVXXraTGT4nc
mJ5UrtfGro9t8FfwRnYp8AfIaI0qNvDgc48KaJO40gXpCp52qA4jB65Q4i4LBSqL
FprI3HtB0rol3BuPQwnZiMoTEsYaGxP46BdwnwWC3lOMUFPKfkQg596+ojSX9mUo
H9Z47XFVpUkbtg==
-----END CERTIFICATE-----
