Certificate:
    Data:
        Version: 3 (0x2)
        Serial Number: 268435677 (0x100000dd)
        Signature Algorithm: sha256WithRSAEncryption
        Issuer: C=DE, ST=Hessen, O=privacyidea, CN=CA001
        Validity
            Not Before: Aug 28 10:24:07 2019 GMT
            Not After : Aug 27 10:24:07 2020 GMT
        Subject: C=DE, ST=Hessen, O=privacyidea, CN=requester.localdomain
        Subject Public Key Info:
            Public Key Algorithm: rsaEncryption
                RSA Public-Key: (2048 bit)
                Modulus:
                    00:cd:be:14:4f:fa:ce:01:3f:42:22:1b:1d:9c:af:
                    dd:92:d2:7f:db:6c:b7:3e:39:43:43:6b:13:03:f1:
                    05:f4:07:74:bc:76:69:28:0b:af:19:8e:d7:fc:e3:
                    cd:c6:58:f2:ca:7f:08:6d:53:fc:07:02:44:24:c6:
                    b4:34:4c:8c:04:fe:33:0e:40:e2:20:ba:02:73:5a:
                    f7:f5:4f:63:6e:cc:c6:b6:df:54:1d:37:39:7d:51:
                    36:26:5f:bd:dc:3f:a8:8b:6b:a2:ae:b6:9d:d6:21:
                    e7:df:41:b8:7a:28:2a:68:48:ca:a8:2d:ed:e1:e9:
                    46:5e:5a:72:6d:b4:84:38:87:91:fd:94:11:0b:28:
                    84:c6:c2:2f:2a:fb:01:f9:36:7a:09:75:d1:33:88:
                    3c:73:41:5b:c8:bf:94:89:70:a1:f0:c0:b9:2e:50:
                    53:1e:b1:17:64:69:f4:2d:81:e0:a9:0d:0e:32:e9:
                    ba:55:8a:85:f1:1b:6f:49:79:b4:7f:88:c3:0d:3e:
                    54:88:9b:3d:1f:38:8c:04:f3:ee:6a:63:2b:f5:c6:
                    db:b4:83:aa:c4:78:41:3a:7d:4b:e1:c8:3e:71:ca:
                    1b:61:59:ea:c6:c4:ca:32:5e:c9:e9:bf:12:29:e6:
                    c6:c3:63:fe:a0:55:da:7a:f1:60:98:4d:26:ed:fa:
                    70:2d
                Exponent: 65537 (0x10001)
        X509v3 extensions:
            X509v3 Key Usage: 
                Digital Signature, Key Encipherment
            X509v3 Basic Constraints: 
                CA:FALSE
            Netscape Cert Type: 
                SSL Server
            Netscape Comment: 
                OpenSSL Generated Server Certificate
            X509v3 Subject Key Identifier: 
                53:3F:ED:5D:09:07:B3:65:7B:AB:45:C9:24:5B:09:77:80:0A:96:ED
            X509v3 Authority Key Identifier: 
                keyid:F4:A7:C0:CC:91:46:AF:64:F3:91:F2:27:F8:C8:B2:6F:8A:87:32:73
                DirName:/C=DE/ST=Hessen/O=privacyidea/CN=CA001
                serial:FB:C8:EB:AC:83:CD:12:07

            X509v3 Extended Key Usage: 
                TLS Web Server Authentication
    Signature Algorithm: sha256WithRSAEncryption
         5d:4d:e7:dd:3b:9a:15:89:76:db:de:1d:18:8b:3f:e1:16:8c:
         93:45:69:c6:2b:94:43:ab:0c:f6:da:3a:e1:50:99:89:74:7b:
         22:13:5b:8c:3c:32:7e:5e:20:ae:44:0e:61:c5:e0:8c:b1:b8:
         b9:74:9a:70:f1:01:94:76:9f:1c:3c:52:b8:1f:64:d2:9d:09:
         06:8a:d1:0c:7f:14:f1:94:fd:85:f5:17:0c:73:3d:e0:1e:81:
         45:44:1e:04:c9:97:df:5e:83:e9:b7:90:b3:45:20:2c:f9:31:
         d6:3f:13:31:ec:90:d3:b4:72:7f:00:70:32:09:db:fc:c6:b3:
         e0:4a:02:f1:d0:38:0d:bf:67:4b:51:61:ac:6c:e5:3c:8b:22:
         df:c5:85:d1:f1:04:7d:d5:45:88:a7:ac:40:a4:0a:8d:28:80:
         e5:a4:22:c0:ea:9a:45:f0:27:51:92:bd:a1:cd:76:40:e1:8a:
         91:a7:c3:00:a3:34:f2:d5:01:00:fa:c9:57:f1:49:5b:28:a1:
         7d:d8:39:61:0b:c3:81:89:91:39:19:36:26:db:63:5a:ab:ba:
         ca:b1:c9:c7:cc:9a:b3:5f:28:5c:56:21:5d:88:9f:02:e1:85:
         7b:0a:a7:6d:da:38:22:f9:0a:d0:05:92:ae:24:db:4c:c5:0f:
         c6:0a:1b:52
-----BEGIN CERTIFICATE-----
MIIEJjCCAw6gAwIBAgIEEAAA3TANBgkqhkiG9w0BAQsFADBEMQswCQYDVQQGEwJE
RTEPMA0GA1UECAwGSGVzc2VuMRQwEgYDVQQKDAtwcml2YWN5aWRlYTEOMAwGA1UE
AwwFQ0EwMDEwHhcNMTkwODI4MTAyNDA3WhcNMjAwODI3MTAyNDA3WjBUMQswCQYD
VQQGEwJERTEPMA0GA1UECAwGSGVzc2VuMRQwEgYDVQQKDAtwcml2YWN5aWRlYTEe
MBwGA1UEAwwVcmVxdWVzdGVyLmxvY2FsZG9tYWluMIIBIjANBgkqhkiG9w0BAQEF
AAOCAQ8AMIIBCgKCAQEAzb4UT/rOAT9CIhsdnK/dktJ/22y3PjlDQ2sTA/EF9Ad0
vHZpKAuvGY7X/OPNxljyyn8IbVP8BwJEJMa0NEyMBP4zDkDiILoCc1r39U9jbszG
tt9UHTc5fVE2Jl+93D+oi2uirrad1iHn30G4eigqaEjKqC3t4elGXlpybbSEOIeR
/ZQRCyiExsIvKvsB+TZ6CXXRM4g8c0FbyL+UiXCh8MC5LlBTHrEXZGn0LYHgqQ0O
Mum6VYqF8RtvSXm0f4jDDT5UiJs9HziMBPPuamMr9cbbtIOqxHhBOn1L4cg+ccob
YVnqxsTKMl7J6b8SKebGw2P+oFXaevFgmE0m7fpwLQIDAQABo4IBDjCCAQowCwYD
VR0PBAQDAgWgMAkGA1UdEwQCMAAwEQYJYIZIAYb4QgEBBAQDAgZAMDMGCWCGSAGG
+EIBDQQmFiRPcGVuU1NMIEdlbmVyYXRlZCBTZXJ2ZXIgQ2VydGlmaWNhdGUwHQYD
VR0OBBYEFFM/7V0JB7Nle6tFySRbCXeACpbtMHQGA1UdIwRtMGuAFPSnwMyRRq9k
85HyJ/jIsm+KhzJzoUikRjBEMQswCQYDVQQGEwJERTEPMA0GA1UECAwGSGVzc2Vu
MRQwEgYDVQQKDAtwcml2YWN5aWRlYTEOMAwGA1UEAwwFQ0EwMDGCCQD7yOusg80S
BzATBgNVHSUEDDAKBggrBgEFBQcDATANBgkqhkiG9w0BAQsFAAOCAQEAXU3n3Tua
FYl2294dGIs/4RaMk0VpxiuUQ6sM9to64VCZiXR7IhNbjDwyfl4grkQOYcXgjLG4
uXSacPEBlHafHDxSuB9k0p0JBorRDH8U8ZT9hfUXDHM94B6BRUQeBMmX316D6beQ
s0UgLPkx1j8TMeyQ07RyfwBwMgnb/Maz4EoC8dA4Db9nS1FhrGzlPIsi38WF0fEE
fdVFiKesQKQKjSiA5aQiwOqaRfAnUZK9oc12QOGKkafDAKM08tUBAPrJV/FJWyih
fdg5YQvDgYmRORk2JttjWqu6yrHJx8yas18oXFYhXYifAuGFewqnbdo4IvkK0AWS
riTbTMUPxgobUg==
-----END CERTIFICATE-----
