Certificate:
    Data:
        Version: 3 (0x2)
        Serial Number: 268435666 (0x100000d2)
        Signature Algorithm: sha256WithRSAEncryption
        Issuer: C=DE, ST=Hessen, O=privacyidea, CN=CA001
        Validity
            Not Before: Sep  3 22:01:26 2019 GMT
            Not After : Sep  2 22:01:26 2020 GMT
        Subject: C=DE, ST=Hessen, O=privacyidea, CN=requester.localdomain
        Subject Public Key Info:
            Public Key Algorithm: rsaEncryption
                RSA Public-Key: (2048 bit)
                Modulus:
                    00:cd:be:14:4f:fa:ce:01:3f:42:22:1b:1d:9c:af:
                    dd:92:d2:7f:db:6c:b7:3e:39:43:43:6b:13:03:f1:
                    05:f4:07:74:bc:76:69:28:0b:af:19:8e:d7:fc:e3:
                    cd:c6:58:f2:ca:7f:08:6d:53:fc:07:02:44:24:c6:
                    b4:34:4c:8c:04:fe:33:0e:40:e2:20:ba:02:73:5a:
                    f7:f5:4f:63:6e:cc:c6:b6:df:54:1d:37:39:7d:51:
                    36:26:5f:bd:dc:3f:a8:8b:6b:a2:ae:b6:9d:d6:21:
                    e7:df:41:b8:7a:28:2a:68:48:ca:a8:2d:ed:e1:e9:
                    46:5e:5a:72:6d:b4:84:38:87:91:fd:94:11:0b:28:
                    84:c6:c2:2f:2a:fb:01:f9:36:7a:09:75:d1:33:88:
                    3c:73:41:5b:c8:bf:94:89:70:a1:f0:c0:b9:2e:50:
                    53:1e:b1:17:64:69:f4:2d:81:e0:a9:0d:0e:32:e9:
                    ba:55:8a:85:f1:1b:6f:49:79:b4:7f:88:c3:0d:3e:
                    54:88:9b:3d:1f:38:8c:04:f3:ee:6a:63:2b:f5:c6:
                    db:b4:83:aa:c4:78:41:3a:7d:4b:e1:c8:3e:71:ca:
                    1b:61:59:ea:c6:c4:ca:32:5e:c9:e9:bf:12:29:e6:
                    c6:c3:63:fe:a0:55:da:7a:f1:60:98:4d:26:ed:fa:
                    70:2d
                Exponent: 65537 (0x10001)
        X509v3 extensions:
            X509v3 Key Usage: 
                Digital Signature, Key Encipherment
            X509v3 Basic Constraints: 
                CA:FALSE
            Netscape Cert Type: 
                SSL Server
            Netscape Comment: 
                OpenSSL Generated Server Certificate
            X509v3 Subject Key Identifier: 
                53:3F:ED:5D:09:07:B3:65:7B:AB:45:C9:24:5B:09:77:80:0A:96:ED
            X509v3 Authority Key Identifier: 
                keyid:F4:A7:C0:CC:91:46:AF:64:F3:91:F2:27:F8:C8:B2:6F:8A:87:32:73
                DirName:/C=DE/ST=Hessen/O=privacyidea/CN=CA001
                serial:FB:C8:EB:AC:83:CD:12:07

            X509v3 Extended Key Usage: 
                TLS Web Server Authentication
    Signature Algorithm: sha256WithRSAEncryption
         b5:9f:f8:bb:b9:d5:1a:a5:3d:66:b5:5a:d3:76:19:d2:b1:52:
         37:cc:00:b4:08:72:17:bc:0e:98:8b:81:b2:43:18:06:6b:f9:
         12:e3:5a:48:cd:79:7b:08:90:c4:67:09:92:20:92:d5:ff:a4:
         73:aa:95:6e:50:91:f6:c4:95:5c:c8:d7:21:02:5f:7b:e6:93:
         ad:75:ff:34:51:ba:df:b9:26:29:a8:91:43:32:56:d6:9d:6c:
         c8:77:b7:8e:3a:b8:e3:5a:e6:f7:d3:48:fe:44:0c:32:92:64:
         8c:74:71:67:e5:a4:af:7e:4c:36:ed:dd:ef:71:94:2f:8e:0d:
         9d:80:ec:9c:63:4a:43:e5:b8:d7:8b:fd:b7:94:ca:bc:f1:fd:
         c7:62:4f:f7:aa:b7:29:5b:f7:cb:47:a3:61:88:22:3d:ce:ae:
         a2:81:16:88:95:43:c9:db:aa:8d:d3:c9:eb:f9:18:d8:31:6d:
         9a:0d:c7:19:7d:1c:4c:d7:da:d4:7c:c9:b9:f9:e7:d9:50:0f:
         10:68:56:26:3a:19:ea:8f:f8:4b:9b:7a:2f:96:03:cb:b6:3c:
         99:f3:04:fc:10:80:2e:4d:68:ec:e4:e9:7b:1f:15:d2:a3:0a:
         1b:35:48:0c:89:a9:39:1d:87:01:bf:cd:08:e6:fc:42:5f:8e:
         7e:59:7f:b6
-----BEGIN CERTIFICATE-----
MIIEJjCCAw6gAwIBAgIEEAAA0jANBgkqhkiG9w0BAQsFADBEMQswCQYDVQQGEwJE
RTEPMA0GA1UECAwGSGVzc2VuMRQwEgYDVQQKDAtwcml2YWN5aWRlYTEOMAwGA1UE
AwwFQ0EwMDEwHhcNMTkwOTAzMjIwMTI2WhcNMjAwOTAyMjIwMTI2WjBUMQswCQYD
VQQGEwJERTEPMA0GA1UECAwGSGVzc2VuMRQwEgYDVQQKDAtwcml2YWN5aWRlYTEe
MBwGA1UEAwwVcmVxdWVzdGVyLmxvY2FsZG9tYWluMIIBIjANBgkqhkiG9w0BAQEF
AAOCAQ8AMIIBCgKCAQEAzb4UT/rOAT9CIhsdnK/dktJ/22y3PjlDQ2sTA/EF9Ad0
vHZpKAuvGY7X/OPNxljyyn8IbVP8BwJEJMa0NEyMBP4zDkDiILoCc1r39U9jbszG
tt9UHTc5fVE2Jl+93D+oi2uirrad1iHn30G4eigqaEjKqC3t4elGXlpybbSEOIeR
/ZQRCyiExsIvKvsB+TZ6CXXRM4g8c0FbyL+UiXCh8MC5LlBTHrEXZGn0LYHgqQ0O
Mum6VYqF8RtvSXm0f4jDDT5UiJs9HziMBPPuamMr9cbbtIOqxHhBOn1L4cg+ccob
YVnqxsTKMl7J6b8SKebGw2P+oFXaevFgmE0m7fpwLQIDAQABo4IBDjCCAQowCwYD
VR0PBAQDAgWgMAkGA1UdEwQCMAAwEQYJYIZIAYb4QgEBBAQDAgZAMDMGCWCGSAGG
+EIBDQQmFiRPcGVuU1NMIEdlbmVyYXRlZCBTZXJ2ZXIgQ2VydGlmaWNhdGUwHQYD
VR0OBBYEFFM/7V0JB7Nle6tFySRbCXeACpbtMHQGA1UdIwRtMGuAFPSnwMyRRq9k
85HyJ/jIsm+KhzJzoUikRjBEMQswCQYDVQQGEwJERTEPMA0GA1UECAwGSGVzc2Vu
MRQwEgYDVQQKDAtwcml2YWN5aWRlYTEOMAwGA1UEAwwFQ0EwMDGCCQD7yOusg80S
BzATBgNVHSUEDDAKBggrBgEFBQcDATANBgkqhkiG9w0BAQsFAAOCAQEAtZ/4u7nV
GqU9ZrVa03YZ0rFSN8wAtAhyF7wOmIuBskMYBmv5EuNaSM15ewiQxGcJkiCS1f+k
c6qVblCR9sSVXMjXIQJfe+aTrXX/NFG637kmKaiRQzJW1p1syHe3jjq441rm99NI
/kQMMpJkjHRxZ+Wkr35MNu3d73GUL44NnYDsnGNKQ+W414v9t5TKvPH9x2JP96q3
KVv3y0ejYYgiPc6uooEWiJVDyduqjdPJ6/kY2DFtmg3HGX0cTNfa1HzJufnn2VAP
EGhWJjoZ6o/4S5t6L5YDy7Y8mfME/BCALk1o7OTpex8V0qMKGzVIDImpOR2HAb/N
COb8Ql+Ofll/tg==
-----END CERTIFICATE-----
