Certificate:
    Data:
        Version: 3 (0x2)
        Serial Number: 268435673 (0x100000d9)
        Signature Algorithm: sha256WithRSAEncryption
        Issuer: C=DE, ST=Hessen, O=privacyidea, CN=CA001
        Validity
            Not Before: Aug 28 10:00:02 2019 GMT
            Not After : Aug 27 10:00:02 2020 GMT
        Subject: C=DE, ST=Hessen, O=privacyidea, CN=requester.localdomain
        Subject Public Key Info:
            Public Key Algorithm: rsaEncryption
                RSA Public-Key: (2048 bit)
                Modulus:
                    00:cd:be:14:4f:fa:ce:01:3f:42:22:1b:1d:9c:af:
                    dd:92:d2:7f:db:6c:b7:3e:39:43:43:6b:13:03:f1:
                    05:f4:07:74:bc:76:69:28:0b:af:19:8e:d7:fc:e3:
                    cd:c6:58:f2:ca:7f:08:6d:53:fc:07:02:44:24:c6:
                    b4:34:4c:8c:04:fe:33:0e:40:e2:20:ba:02:73:5a:
                    f7:f5:4f:63:6e:cc:c6:b6:df:54:1d:37:39:7d:51:
                    36:26:5f:bd:dc:3f:a8:8b:6b:a2:ae:b6:9d:d6:21:
                    e7:df:41:b8:7a:28:2a:68:48:ca:a8:2d:ed:e1:e9:
                    46:5e:5a:72:6d:b4:84:38:87:91:fd:94:11:0b:28:
                    84:c6:c2:2f:2a:fb:01:f9:36:7a:09:75:d1:33:88:
                    3c:73:41:5b:c8:bf:94:89:70:a1:f0:c0:b9:2e:50:
                    53:1e:b1:17:64:69:f4:2d:81:e0:a9:0d:0e:32:e9:
                    ba:55:8a:85:f1:1b:6f:49:79:b4:7f:88:c3:0d:3e:
                    54:88:9b:3d:1f:38:8c:04:f3:ee:6a:63:2b:f5:c6:
                    db:b4:83:aa:c4:78:41:3a:7d:4b:e1:c8:3e:71:ca:
                    1b:61:59:ea:c6:c4:ca:32:5e:c9:e9:bf:12:29:e6:
                    c6:c3:63:fe:a0:55:da:7a:f1:60:98:4d:26:ed:fa:
                    70:2d
                Exponent: 65537 (0x10001)
        X509v3 extensions:
            X509v3 Key Usage: 
                Digital Signature, Key Encipherment
            X509v3 Basic Constraints: 
                CA:FALSE
            Netscape Cert Type: 
                SSL Server
            Netscape Comment: 
                OpenSSL Generated Server Certificate
            X509v3 Subject Key Identifier: 
                53:3F:ED:5D:09:07:B3:65:7B:AB:45:C9:24:5B:09:77:80:0A:96:ED
            X509v3 Authority Key Identifier: 
                keyid:F4:A7:C0:CC:91:46:AF:64:F3:91:F2:27:F8:C8:B2:6F:8A:87:32:73
                DirName:/C=DE/ST=Hessen/O=privacyidea/CN=CA001
                serial:FB:C8:EB:AC:83:CD:12:07

            X509v3 Extended Key Usage: 
                TLS Web Server Authentication
    Signature Algorithm: sha256WithRSAEncryption
         6f:77:c2:82:06:0b:b3:27:78:d9:05:f0:66:29:31:d6:1e:35:
         d3:4a:de:0e:33:74:09:c7:72:15:8d:31:2f:3d:4a:16:19:a4:
         6b:83:a1:0e:09:db:93:5a:b1:d2:0f:d0:c9:36:fe:34:d1:30:
         76:a0:21:ff:62:ce:83:6e:5f:69:64:68:97:f4:1e:3d:13:3e:
         0a:3c:ed:0b:71:4b:25:82:07:34:c1:59:ff:c1:53:62:d9:dc:
         53:74:31:ee:0d:39:ff:80:71:a7:66:af:ce:27:ad:db:d6:0f:
         b0:9f:9c:a4:7f:52:e0:bf:f7:f5:8f:de:ad:3c:51:99:70:ec:
         5d:03:df:46:9a:e6:e5:dd:e3:6e:20:fe:70:4d:96:97:5e:97:
         47:b1:04:d5:b6:62:bb:73:0a:a0:cd:27:95:1b:4c:a6:22:58:
         bb:a1:98:ed:ec:cd:31:66:e9:2f:67:33:d2:12:db:aa:ef:f7:
         26:a0:e9:21:ec:1c:9e:e9:da:14:eb:04:25:b5:ab:26:be:5c:
         ba:02:9e:39:98:47:7c:75:1a:33:e4:ea:25:89:07:5d:a0:95:
         1d:e7:fc:a6:4f:cb:9c:c5:67:3d:b0:c0:3b:0f:3b:e3:e7:9e:
         38:11:88:5b:dc:d7:17:a4:98:5d:ff:f2:69:86:f0:c1:e6:b1:
         38:1d:62:76
-----BEGIN CERTIFICATE-----
MIIEJjCCAw6gAwIBAgIEEAAA2TANBgkqhkiG9w0BAQsFADBEMQswCQYDVQQGEwJE
RTEPMA0GA1UECAwGSGVzc2VuMRQwEgYDVQQKDAtwcml2YWN5aWRlYTEOMAwGA1UE
AwwFQ0EwMDEwHhcNMTkwODI4MTAwMDAyWhcNMjAwODI3MTAwMDAyWjBUMQswCQYD
VQQGEwJERTEPMA0GA1UECAwGSGVzc2VuMRQwEgYDVQQKDAtwcml2YWN5aWRlYTEe
MBwGA1UEAwwVcmVxdWVzdGVyLmxvY2FsZG9tYWluMIIBIjANBgkqhkiG9w0BAQEF
AAOCAQ8AMIIBCgKCAQEAzb4UT/rOAT9CIhsdnK/dktJ/22y3PjlDQ2sTA/EF9Ad0
vHZpKAuvGY7X/OPNxljyyn8IbVP8BwJEJMa0NEyMBP4zDkDiILoCc1r39U9jbszG
tt9UHTc5fVE2Jl+93D+oi2uirrad1iHn30G4eigqaEjKqC3t4elGXlpybbSEOIeR
/ZQRCyiExsIvKvsB+TZ6CXXRM4g8c0FbyL+UiXCh8MC5LlBTHrEXZGn0LYHgqQ0O
Mum6VYqF8RtvSXm0f4jDDT5UiJs9HziMBPPuamMr9cbbtIOqxHhBOn1L4cg+ccob
YVnqxsTKMl7J6b8SKebGw2P+oFXaevFgmE0m7fpwLQIDAQABo4IBDjCCAQowCwYD
VR0PBAQDAgWgMAkGA1UdEwQCMAAwEQYJYIZIAYb4QgEBBAQDAgZAMDMGCWCGSAGG
+EIBDQQmFiRPcGVuU1NMIEdlbmVyYXRlZCBTZXJ2ZXIgQ2VydGlmaWNhdGUwHQYD
VR0OBBYEFFM/7V0JB7Nle6tFySRbCXeACpbtMHQGA1UdIwRtMGuAFPSnwMyRRq9k
85HyJ/jIsm+KhzJzoUikRjBEMQswCQYDVQQGEwJERTEPMA0GA1UECAwGSGVzc2Vu
MRQwEgYDVQQKDAtwcml2YWN5aWRlYTEOMAwGA1UEAwwFQ0EwMDGCCQD7yOusg80S
BzATBgNVHSUEDDAKBggrBgEFBQcDATANBgkqhkiG9w0BAQsFAAOCAQEAb3fCggYL
syd42QXwZikx1h4100reDjN0CcdyFY0xLz1KFhmka4OhDgnbk1qx0g/QyTb+NNEw
dqAh/2LOg25faWRol/QePRM+CjztC3FLJYIHNMFZ/8FTYtncU3Qx7g05/4Bxp2av
ziet29YPsJ+cpH9S4L/39Y/erTxRmXDsXQPfRprm5d3jbiD+cE2Wl16XR7EE1bZi
u3MKoM0nlRtMpiJYu6GY7ezNMWbpL2cz0hLbqu/3JqDpIewcnunaFOsEJbWrJr5c
ugKeOZhHfHUaM+TqJYkHXaCVHef8pk/LnMVnPbDAOw874+eeOBGIW9zXF6SYXf/y
aYbwweaxOB1idg==
-----END CERTIFICATE-----
