Certificate:
    Data:
        Version: 3 (0x2)
        Serial Number: 268435669 (0x100000d5)
        Signature Algorithm: sha256WithRSAEncryption
        Issuer: C=DE, ST=Hessen, O=privacyidea, CN=CA001
        Validity
            Not Before: Sep  3 22:01:26 2019 GMT
            Not After : Sep 22 22:01:26 2021 GMT
        Subject: CN=Steve Test/emailAddress=steve@openssl.org
        Subject Public Key Info:
            Public Key Algorithm: rsaEncryption
                RSA Public-Key: (2048 bit)
                Modulus:
                    00:d2:81:89:20:51:48:0f:73:f4:11:32:24:d5:1f:
                    1c:fd:5c:f5:b6:e6:c5:f0:52:81:dc:d2:af:66:4a:
                    7c:93:31:61:5c:af:d1:6d:06:70:03:60:7c:72:0c:
                    88:dd:49:cd:9e:02:6c:d2:5a:d7:53:0f:f3:da:be:
                    69:64:b5:0f:0c:00:e3:b3:50:47:a3:b3:9b:ba:13:
                    50:d6:58:5a:4b:ab:39:e0:11:ca:0a:27:67:03:78:
                    22:66:6d:92:1e:1b:5c:49:ae:e6:6b:d1:8e:3b:9d:
                    06:d3:c6:ac:4d:53:43:10:ab:e8:96:c1:87:82:97:
                    99:8f:20:d3:99:12:37:31:84:e1:8a:ff:29:03:5f:
                    22:90:3e:7f:9b:e0:20:c1:ad:dc:ae:4c:39:1a:31:
                    96:17:02:8c:b2:d9:b4:0d:20:12:9b:7d:86:54:fd:
                    33:fd:c1:2a:62:46:f8:60:96:cf:6e:01:6f:22:df:
                    13:47:e7:97:ec:05:72:23:a3:62:f8:fa:ef:ac:9c:
                    72:f0:37:cb:2f:37:cf:90:a8:27:51:86:c6:d7:78:
                    08:8f:7e:25:a2:15:70:a2:fb:1c:b6:15:5e:a0:97:
                    8b:81:4c:09:28:8a:27:3b:94:bc:71:db:5b:71:37:
                    9a:2b:16:e0:6f:b5:c9:f5:4b:4f:20:ba:65:cf:af:
                    ad:ad
                Exponent: 65537 (0x10001)
        X509v3 extensions:
            X509v3 Key Usage: 
                Digital Signature, Key Encipherment
            X509v3 Basic Constraints: 
                CA:FALSE
            Netscape Cert Type: 
                SSL Server
            Netscape Comment: 
                OpenSSL Generated Server Certificate
            X509v3 Subject Key Identifier: 
                E5:25:6D:3E:AF:0D:DD:3F:4C:F2:45:19:39:D5:14:DB:7E:9C:C0:AD
            X509v3 Authority Key Identifier: 
                keyid:F4:A7:C0:CC:91:46:AF:64:F3:91:F2:27:F8:C8:B2:6F:8A:87:32:73
                DirName:/C=DE/ST=Hessen/O=privacyidea/CN=CA001
                serial:FB:C8:EB:AC:83:CD:12:07

            X509v3 Extended Key Usage: 
                TLS Web Server Authentication
    Signature Algorithm: sha256WithRSAEncryption
         09:e8:f2:58:aa:60:23:8f:a1:f2:63:4c:2c:d9:41:29:40:11:
         a7:5f:3c:d8:e2:46:6a:17:f6:a7:9a:da:2c:11:09:00:24:4d:
         32:2d:4b:d8:12:38:5f:38:82:7c:30:04:ec:0e:4c:80:37:88:
         10:fb:7c:7b:4a:4f:81:b5:7b:03:60:c6:96:a6:88:3d:ab:b3:
         e3:c1:2a:e5:ed:99:bb:03:66:18:9e:29:20:ab:61:83:e5:20:
         24:e0:12:5f:d8:d2:83:3b:ca:1f:82:31:1d:33:87:a6:32:bd:
         0a:36:21:95:96:64:c6:3f:ff:81:2b:5b:bd:df:89:47:87:6d:
         c9:9a:49:86:28:d0:fd:18:56:5d:9b:eb:77:7c:39:93:72:24:
         57:a3:13:86:82:e0:5f:d4:2c:85:ca:0b:93:35:38:46:a9:a2:
         1f:2a:c1:5a:f1:4a:3e:40:f1:62:f4:24:44:ff:72:44:ca:19:
         a4:ad:a8:e9:4b:5c:cb:b5:d6:8a:1a:91:f4:1e:3b:5c:39:3c:
         97:81:8d:80:f1:c9:07:23:be:5b:de:f6:77:ec:32:c5:07:1c:
         ae:63:33:d1:ce:b0:07:cc:7f:d9:c4:10:bb:ad:f0:0f:36:ea:
         e3:57:12:5b:18:11:1c:ac:70:d2:44:34:a1:e6:02:31:46:80:
         49:a3:bd:c8
-----BEGIN CERTIFICATE-----
MIIECTCCAvGgAwIBAgIEEAAA1TANBgkqhkiG9w0BAQsFADBEMQswCQYDVQQGEwJE
RTEPMA0GA1UECAwGSGVzc2VuMRQwEgYDVQQKDAtwcml2YWN5aWRlYTEOMAwGA1UE
AwwFQ0EwMDEwHhcNMTkwOTAzMjIwMTI2WhcNMjEwOTIyMjIwMTI2WjA3MRMwEQYD
VQQDDApTdGV2ZSBUZXN0MSAwHgYJKoZIhvcNAQkBFhFzdGV2ZUBvcGVuc3NsLm9y
ZzCCASIwDQYJKoZIhvcNAQEBBQADggEPADCCAQoCggEBANKBiSBRSA9z9BEyJNUf
HP1c9bbmxfBSgdzSr2ZKfJMxYVyv0W0GcANgfHIMiN1JzZ4CbNJa11MP89q+aWS1
DwwA47NQR6Ozm7oTUNZYWkurOeARygonZwN4ImZtkh4bXEmu5mvRjjudBtPGrE1T
QxCr6JbBh4KXmY8g05kSNzGE4Yr/KQNfIpA+f5vgIMGt3K5MORoxlhcCjLLZtA0g
Ept9hlT9M/3BKmJG+GCWz24BbyLfE0fnl+wFciOjYvj676yccvA3yy83z5CoJ1GG
xtd4CI9+JaIVcKL7HLYVXqCXi4FMCSiKJzuUvHHbW3E3misW4G+1yfVLTyC6Zc+v
ra0CAwEAAaOCAQ4wggEKMAsGA1UdDwQEAwIFoDAJBgNVHRMEAjAAMBEGCWCGSAGG
+EIBAQQEAwIGQDAzBglghkgBhvhCAQ0EJhYkT3BlblNTTCBHZW5lcmF0ZWQgU2Vy
dmVyIENlcnRpZmljYXRlMB0GA1UdDgQWBBTlJW0+rw3dP0zyRRk51RTbfpzArTB0
BgNVHSMEbTBrgBT0p8DMkUavZPOR8if4yLJviocyc6FIpEYwRDELMAkGA1UEBhMC
REUxDzANBgNVBAgMBkhlc3NlbjEUMBIGA1UECgwLcHJpdmFjeWlkZWExDjAMBgNV
BAMMBUNBMDAxggkA+8jrrIPNEgcwEwYDVR0lBAwwCgYIKwYBBQUHAwEwDQYJKoZI
hvcNAQELBQADggEBAAno8liqYCOPofJjTCzZQSlAEadfPNjiRmoX9qea2iwRCQAk
TTItS9gSOF84gnwwBOwOTIA3iBD7fHtKT4G1ewNgxpamiD2rs+PBKuXtmbsDZhie
KSCrYYPlICTgEl/Y0oM7yh+CMR0zh6YyvQo2IZWWZMY//4ErW73fiUeHbcmaSYYo
0P0YVl2b63d8OZNyJFejE4aC4F/ULIXKC5M1OEapoh8qwVrxSj5A8WL0JET/ckTK
GaStqOlLXMu11ooakfQeO1w5PJeBjYDxyQcjvlve9nfsMsUHHK5jM9HOsAfMf9nE
ELut8A826uNXElsYERyscNJENKHmAjFGgEmjvcg=
-----END CERTIFICATE-----
