Certificate:
    Data:
        Version: 3 (0x2)
        Serial Number: 268435684 (0x100000e4)
        Signature Algorithm: sha256WithRSAEncryption
        Issuer: C=DE, ST=Hessen, O=privacyidea, CN=CA001
        Validity
            Not Before: Aug 15 09:27:00 2019 GMT
            Not After : Sep  3 09:27:00 2021 GMT
        Subject: CN=Steve Test/emailAddress=steve@openssl.org
        Subject Public Key Info:
            Public Key Algorithm: rsaEncryption
                RSA Public-Key: (2048 bit)
                Modulus:
                    00:d2:81:89:20:51:48:0f:73:f4:11:32:24:d5:1f:
                    1c:fd:5c:f5:b6:e6:c5:f0:52:81:dc:d2:af:66:4a:
                    7c:93:31:61:5c:af:d1:6d:06:70:03:60:7c:72:0c:
                    88:dd:49:cd:9e:02:6c:d2:5a:d7:53:0f:f3:da:be:
                    69:64:b5:0f:0c:00:e3:b3:50:47:a3:b3:9b:ba:13:
                    50:d6:58:5a:4b:ab:39:e0:11:ca:0a:27:67:03:78:
                    22:66:6d:92:1e:1b:5c:49:ae:e6:6b:d1:8e:3b:9d:
                    06:d3:c6:ac:4d:53:43:10:ab:e8:96:c1:87:82:97:
                    99:8f:20:d3:99:12:37:31:84:e1:8a:ff:29:03:5f:
                    22:90:3e:7f:9b:e0:20:c1:ad:dc:ae:4c:39:1a:31:
                    96:17:02:8c:b2:d9:b4:0d:20:12:9b:7d:86:54:fd:
                    33:fd:c1:2a:62:46:f8:60:96:cf:6e:01:6f:22:df:
                    13:47:e7:97:ec:05:72:23:a3:62:f8:fa:ef:ac:9c:
                    72:f0:37:cb:2f:37:cf:90:a8:27:51:86:c6:d7:78:
                    08:8f:7e:25:a2:15:70:a2:fb:1c:b6:15:5e:a0:97:
                    8b:81:4c:09:28:8a:27:3b:94:bc:71:db:5b:71:37:
                    9a:2b:16:e0:6f:b5:c9:f5:4b:4f:20:ba:65:cf:af:
                    ad:ad
                Exponent: 65537 (0x10001)
        X509v3 extensions:
            X509v3 Key Usage: 
                Digital Signature, Key Encipherment
            X509v3 Basic Constraints: 
                CA:FALSE
            Netscape Cert Type: 
                SSL Server
            Netscape Comment: 
                OpenSSL Generated Server Certificate
            X509v3 Subject Key Identifier: 
                E5:25:6D:3E:AF:0D:DD:3F:4C:F2:45:19:39:D5:14:DB:7E:9C:C0:AD
            X509v3 Authority Key Identifier: 
                keyid:F4:A7:C0:CC:91:46:AF:64:F3:91:F2:27:F8:C8:B2:6F:8A:87:32:73
                DirName:/C=DE/ST=Hessen/O=privacyidea/CN=CA001
                serial:FB:C8:EB:AC:83:CD:12:07

            X509v3 Extended Key Usage: 
                TLS Web Server Authentication
    Signature Algorithm: sha256WithRSAEncryption
         5e:2c:11:3f:d4:9b:ec:b1:4f:3e:2f:1a:79:b9:f3:fa:ad:82:
         04:52:f9:1b:f9:27:d3:2f:3a:b6:4f:d0:cc:27:e8:19:1e:35:
         b8:bb:e8:04:9e:51:ec:1e:3e:8e:22:50:cd:bd:14:87:ef:0d:
         a4:47:85:57:7b:3e:96:84:b7:09:cf:f3:63:15:dc:8d:c7:ec:
         1a:b3:21:4d:5b:cf:bd:c1:d0:7c:29:52:a2:c3:f7:31:c4:48:
         f4:0f:3f:b4:e9:b3:04:ae:79:33:79:4a:9a:31:b2:10:93:d2:
         83:52:9d:20:94:06:2a:0c:9a:86:d6:7c:59:09:46:46:50:e9:
         22:b9:f6:af:46:e8:c6:bf:77:1a:9b:44:59:4f:74:7d:77:3e:
         d6:6f:68:0b:21:09:b8:47:9a:63:cb:f4:8a:11:44:23:60:97:
         f2:a7:60:f4:55:fe:84:69:a4:af:2d:78:07:0d:ab:13:87:20:
         a7:c7:c1:26:2c:76:37:d2:89:8a:73:85:7b:2c:39:30:8c:5f:
         3e:0f:43:bc:1e:8a:59:b1:6c:55:25:bc:cf:ea:f3:1b:4c:f8:
         04:eb:68:92:55:a5:e4:11:9f:5a:0f:49:cf:8f:aa:07:9b:ca:
         6a:57:6c:6c:5a:1d:f4:9b:30:a1:66:33:0a:39:89:ee:1c:59:
         da:9b:3a:e3
-----BEGIN CERTIFICATE-----
MIIECTCCAvGgAwIBAgIEEAAA5DANBgkqhkiG9w0BAQsFADBEMQswCQYDVQQGEwJE
RTEPMA0GA1UECAwGSGVzc2VuMRQwEgYDVQQKDAtwcml2YWN5aWRlYTEOMAwGA1UE
AwwFQ0EwMDEwHhcNMTkwODE1MDkyNzAwWhcNMjEwOTAzMDkyNzAwWjA3MRMwEQYD
VQQDDApTdGV2ZSBUZXN0MSAwHgYJKoZIhvcNAQkBFhFzdGV2ZUBvcGVuc3NsLm9y
ZzCCASIwDQYJKoZIhvcNAQEBBQADggEPADCCAQoCggEBANKBiSBRSA9z9BEyJNUf
HP1c9bbmxfBSgdzSr2ZKfJMxYVyv0W0GcANgfHIMiN1JzZ4CbNJa11MP89q+aWS1
DwwA47NQR6Ozm7oTUNZYWkurOeARygonZwN4ImZtkh4bXEmu5mvRjjudBtPGrE1T
QxCr6JbBh4KXmY8g05kSNzGE4Yr/KQNfIpA+f5vgIMGt3K5MORoxlhcCjLLZtA0g
Ept9hlT9M/3BKmJG+GCWz24BbyLfE0fnl+wFciOjYvj676yccvA3yy83z5CoJ1GG
xtd4CI9+JaIVcKL7HLYVXqCXi4FMCSiKJzuUvHHbW3E3misW4G+1yfVLTyC6Zc+v
ra0CAwEAAaOCAQ4wggEKMAsGA1UdDwQEAwIFoDAJBgNVHRMEAjAAMBEGCWCGSAGG
+EIBAQQEAwIGQDAzBglghkgBhvhCAQ0EJhYkT3BlblNTTCBHZW5lcmF0ZWQgU2Vy
dmVyIENlcnRpZmljYXRlMB0GA1UdDgQWBBTlJW0+rw3dP0zyRRk51RTbfpzArTB0
BgNVHSMEbTBrgBT0p8DMkUavZPOR8if4yLJviocyc6FIpEYwRDELMAkGA1UEBhMC
REUxDzANBgNVBAgMBkhlc3NlbjEUMBIGA1UECgwLcHJpdmFjeWlkZWExDjAMBgNV
BAMMBUNBMDAxggkA+8jrrIPNEgcwEwYDVR0lBAwwCgYIKwYBBQUHAwEwDQYJKoZI
hvcNAQELBQADggEBAF4sET/Um+yxTz4vGnm58/qtggRS+Rv5J9MvOrZP0Mwn6Bke
Nbi76ASeUewePo4iUM29FIfvDaRHhVd7PpaEtwnP82MV3I3H7BqzIU1bz73B0Hwp
UqLD9zHESPQPP7TpswSueTN5SpoxshCT0oNSnSCUBioMmobWfFkJRkZQ6SK59q9G
6Ma/dxqbRFlPdH13PtZvaAshCbhHmmPL9IoRRCNgl/KnYPRV/oRppK8teAcNqxOH
IKfHwSYsdjfSiYpzhXssOTCMXz4PQ7weilmxbFUlvM/q8xtM+ATraJJVpeQRn1oP
Sc+PqgebympXbGxaHfSbMKFmMwo5ie4cWdqbOuM=
-----END CERTIFICATE-----
