Certificate:
    Data:
        Version: 3 (0x2)
        Serial Number: 268435672 (0x100000d8)
        Signature Algorithm: sha256WithRSAEncryption
        Issuer: C=DE, ST=Hessen, O=privacyidea, CN=CA001
        Validity
            Not Before: Sep  3 22:05:06 2019 GMT
            Not After : Sep  2 22:05:06 2020 GMT
        Subject: CN=selfservice,CN=user,O=realm1/emailAddress=meine
        Subject Public Key Info:
            Public Key Algorithm: rsaEncryption
                RSA Public-Key: (2048 bit)
                Modulus:
                    00:cf:3c:d4:33:0e:12:c4:e6:da:cd:b6:56:a1:1c:
                    26:bb:26:1c:8a:4a:73:a8:58:8a:b6:1e:b3:8b:99:
                    d2:1d:07:c2:92:89:79:c0:69:d8:c8:df:28:61:98:
                    1e:b3:fe:ae:2b:bd:78:a9:f7:6e:47:dc:a3:a0:16:
                    8c:85:02:c1:4e:92:fd:72:6e:f0:c8:03:29:9b:b8:
                    00:6e:c0:83:95:c8:34:20:36:9c:b3:e5:e4:e6:76:
                    73:a3:1a:ad:40:96:e0:53:54:00:ec:76:79:9a:c6:
                    0d:7e:b6:bd:29:ec:83:f3:cb:89:a4:cb:6c:00:ba:
                    0c:c5:78:0f:ff:69:b8:94:f4:04:70:43:3f:d8:9e:
                    d7:a7:fb:5d:ce:75:8e:da:e7:c4:07:b1:9d:de:6f:
                    88:4b:b6:4d:9a:cf:f9:bc:fa:9f:cd:32:6d:f6:3a:
                    0b:0d:23:42:78:ec:97:42:bf:0e:4d:60:56:e1:d3:
                    02:f2:19:cb:84:57:90:e5:70:a1:a2:83:35:86:e2:
                    da:86:9f:f9:8a:c4:79:b3:52:28:da:cb:bb:34:ca:
                    d3:da:91:4a:cf:8d:76:a2:b2:6b:9b:f9:96:fd:09:
                    2a:da:11:23:4d:f0:cb:d6:b2:b1:0e:12:6c:9a:19:
                    65:98:87:ca:e4:ee:24:ce:44:ac:90:8f:9d:1b:c5:
                    2a:9d
                Exponent: 65537 (0x10001)
        X509v3 extensions:
            X509v3 Key Usage: 
                Digital Signature, Key Encipherment
            X509v3 Basic Constraints: 
                CA:FALSE
            Netscape Cert Type: 
                SSL Server
            Netscape Comment: 
                OpenSSL Generated Server Certificate
            X509v3 Subject Key Identifier: 
                4D:07:90:AD:FF:1D:0D:E7:1A:DD:D6:2E:FA:BA:34:CB:AA:1F:24:C6
            X509v3 Authority Key Identifier: 
                keyid:F4:A7:C0:CC:91:46:AF:64:F3:91:F2:27:F8:C8:B2:6F:8A:87:32:73
                DirName:/C=DE/ST=Hessen/O=privacyidea/CN=CA001
                serial:FB:C8:EB:AC:83:CD:12:07

            X509v3 Extended Key Usage: 
                TLS Web Server Authentication
    Signature Algorithm: sha256WithRSAEncryption
         40:37:24:38:d4:0a:ca:5a:5d:f2:7a:4c:4c:b0:9e:96:41:36:
         f7:3f:6d:9e:c1:4d:54:33:4b:ef:2b:cb:e1:ca:9a:a1:24:0b:
         c8:96:02:a2:c6:fd:e2:50:af:dc:2e:2a:c4:f7:ad:ca:ba:df:
         df:eb:a1:97:48:a8:8a:e0:c5:dd:ed:b1:63:51:04:f0:97:59:
         12:67:1f:91:0e:bc:48:d9:d6:a7:74:39:24:12:c4:05:38:41:
         ae:4b:66:77:90:f7:c8:59:c9:c3:1d:49:fd:4a:73:f6:d8:a6:
         8d:10:69:d4:fb:fa:f9:ca:22:c0:a8:f2:e8:42:ef:9c:d0:d7:
         d6:df:8b:d2:07:a9:95:07:c5:1f:6e:93:05:80:42:08:2a:e6:
         1e:80:4a:06:9d:da:5d:09:98:87:8c:5c:a9:5e:30:03:14:ca:
         b6:41:ac:c2:5f:42:1a:5e:7d:ca:68:a3:7e:59:a8:2c:e3:d7:
         96:3c:d6:e4:e1:cd:6c:72:fc:fb:0a:34:aa:95:bd:05:0e:39:
         47:ad:db:88:e4:4f:5d:25:4f:df:c5:14:3c:8d:d5:95:e7:29:
         88:b6:0f:b2:08:f3:2a:21:6e:87:1c:73:0e:5b:73:a1:c6:9a:
         c8:16:94:75:ae:6e:e3:98:ee:3a:a3:e1:09:f9:e9:2a:46:73:
         1a:30:73:9c
-----BEGIN CERTIFICATE-----
MIIEDzCCAvegAwIBAgIEEAAA2DANBgkqhkiG9w0BAQsFADBEMQswCQYDVQQGEwJE
RTEPMA0GA1UECAwGSGVzc2VuMRQwEgYDVQQKDAtwcml2YWN5aWRlYTEOMAwGA1UE
AwwFQ0EwMDEwHhcNMTkwOTAzMjIwNTA2WhcNMjAwOTAyMjIwNTA2WjA9MSUwIwYD
VQQDDBxzZWxmc2VydmljZSxDTj11c2VyLE89cmVhbG0xMRQwEgYJKoZIhvcNAQkB
FgVtZWluZTCCASIwDQYJKoZIhvcNAQEBBQADggEPADCCAQoCggEBAM881DMOEsTm
2s22VqEcJrsmHIpKc6hYirYes4uZ0h0HwpKJecBp2MjfKGGYHrP+riu9eKn3bkfc
o6AWjIUCwU6S/XJu8MgDKZu4AG7Ag5XINCA2nLPl5OZ2c6MarUCW4FNUAOx2eZrG
DX62vSnsg/PLiaTLbAC6DMV4D/9puJT0BHBDP9ie16f7Xc51jtrnxAexnd5viEu2
TZrP+bz6n80ybfY6Cw0jQnjsl0K/Dk1gVuHTAvIZy4RXkOVwoaKDNYbi2oaf+YrE
ebNSKNrLuzTK09qRSs+NdqKya5v5lv0JKtoRI03wy9aysQ4SbJoZZZiHyuTuJM5E
rJCPnRvFKp0CAwEAAaOCAQ4wggEKMAsGA1UdDwQEAwIFoDAJBgNVHRMEAjAAMBEG
CWCGSAGG+EIBAQQEAwIGQDAzBglghkgBhvhCAQ0EJhYkT3BlblNTTCBHZW5lcmF0
ZWQgU2VydmVyIENlcnRpZmljYXRlMB0GA1UdDgQWBBRNB5Ct/x0N5xrd1i76ujTL
qh8kxjB0BgNVHSMEbTBrgBT0p8DMkUavZPOR8if4yLJviocyc6FIpEYwRDELMAkG
A1UEBhMCREUxDzANBgNVBAgMBkhlc3NlbjEUMBIGA1UECgwLcHJpdmFjeWlkZWEx
DjAMBgNVBAMMBUNBMDAxggkA+8jrrIPNEgcwEwYDVR0lBAwwCgYIKwYBBQUHAwEw
DQYJKoZIhvcNAQELBQADggEBAEA3JDjUCspaXfJ6TEywnpZBNvc/bZ7BTVQzS+8r
y+HKmqEkC8iWAqLG/eJQr9wuKsT3rcq639/roZdIqIrgxd3tsWNRBPCXWRJnH5EO
vEjZ1qd0OSQSxAU4Qa5LZneQ98hZycMdSf1Kc/bYpo0QadT7+vnKIsCo8uhC75zQ
19bfi9IHqZUHxR9ukwWAQggq5h6ASgad2l0JmIeMXKleMAMUyrZBrMJfQhpefcpo
o35ZqCzj15Y81uThzWxy/PsKNKqVvQUOOUet24jkT10lT9/FFDyN1ZXnKYi2D7II
8yohbocccw5bc6HGmsgWlHWubuOY7jqj4Qn56SpGcxowc5w=
-----END CERTIFICATE-----
