Certificate:
    Data:
        Version: 3 (0x2)
        Serial Number: 268435682 (0x100000e2)
        Signature Algorithm: sha256WithRSAEncryption
        Issuer: C=DE, ST=Hessen, O=privacyidea, CN=CA001
        Validity
            Not Before: Aug 28 10:35:27 2019 GMT
            Not After : Aug 27 10:35:27 2020 GMT
        Subject: OU=realm1, CN=cornelius/emailAddress=user@localhost.localdomain
        Subject Public Key Info:
            Public Key Algorithm: rsaEncryption
                RSA Public-Key: (2048 bit)
                Modulus:
                    00:b0:41:85:4b:ff:2a:9c:8d:5a:fe:b5:dd:4d:85:
                    50:03:62:e8:c4:fa:16:1c:fe:d8:46:cd:52:4f:3e:
                    f0:ec:8e:b3:19:ab:15:06:61:e2:82:00:6d:09:18:
                    ec:8b:d0:1d:9f:94:08:db:fb:52:3b:b7:f5:54:73:
                    99:af:3f:4e:ed:8e:39:09:0f:14:4d:d7:af:a9:db:
                    06:3b:ab:d2:87:71:ec:d9:72:22:90:ac:3e:19:1e:
                    a6:d2:70:57:4f:88:72:f4:4b:9e:cc:aa:9c:e9:06:
                    95:19:d7:6a:37:6e:1f:77:dc:a1:ef:e4:c6:c9:12:
                    a0:62:62:ea:47:74:74:72:c6:45:b9:1a:ec:8b:ff:
                    05:5e:b7:09:7e:0b:79:d1:f8:f3:cf:73:6e:0d:c0:
                    2a:c1:76:e2:5c:70:ca:87:67:6f:e3:7a:4a:ef:d7:
                    0b:f9:e1:15:83:b7:46:af:84:9c:4a:da:88:db:ab:
                    66:d6:ff:21:d5:4b:ee:22:3e:09:27:79:e5:c0:b5:
                    eb:e6:3e:f6:4b:86:37:fb:95:5c:d1:75:69:15:ce:
                    a4:4a:19:db:af:c3:bc:80:81:9c:89:12:1f:53:53:
                    9a:d4:f9:89:3d:ca:1c:c0:34:04:f3:7e:f5:a8:15:
                    bc:b7:e9:eb:cf:d1:82:ab:9a:df:b4:f9:63:ee:1b:
                    c1:4b
                Exponent: 65537 (0x10001)
        X509v3 extensions:
            X509v3 Key Usage: 
                Digital Signature, Key Encipherment
            X509v3 Basic Constraints: 
                CA:FALSE
            Netscape Cert Type: 
                SSL Server
            Netscape Comment: 
                OpenSSL Generated Server Certificate
            X509v3 Subject Key Identifier: 
                CC:72:3C:BA:1E:E7:6B:EF:A8:80:B6:8A:90:53:AF:44:E8:4A:96:2E
            X509v3 Authority Key Identifier: 
                keyid:F4:A7:C0:CC:91:46:AF:64:F3:91:F2:27:F8:C8:B2:6F:8A:87:32:73
                DirName:/C=DE/ST=Hessen/O=privacyidea/CN=CA001
                serial:FB:C8:EB:AC:83:CD:12:07

            X509v3 Extended Key Usage: 
                TLS Web Server Authentication
    Signature Algorithm: sha256WithRSAEncryption
         74:dd:4e:2d:54:cf:e1:7b:ed:d9:ba:f8:dc:85:4f:ec:6b:72:
         fc:18:fc:10:5a:ae:38:05:13:b7:53:1e:0f:cd:a3:af:33:90:
         84:b2:fa:fb:24:39:1d:bf:e9:03:76:07:2c:78:17:f2:7a:6e:
         8b:3b:94:2c:1f:81:18:d7:f2:0f:48:21:9a:8c:f1:bf:a6:70:
         f3:0e:90:2a:e8:1f:19:81:01:5f:cd:ae:ec:3b:4f:f7:eb:dc:
         87:84:6d:17:e5:c8:b0:f4:da:c5:ba:10:6f:58:fa:e2:04:38:
         5a:36:40:a7:2d:32:09:2e:e5:26:a2:2f:e1:ce:ca:78:91:75:
         f3:34:ec:06:87:31:76:e7:91:20:61:f6:5d:d3:83:9a:4d:9a:
         11:ec:d1:8c:34:47:c6:46:50:0f:76:e2:ab:bc:19:44:24:93:
         75:f6:db:b6:82:11:2f:5a:00:de:66:c0:8d:3b:25:cd:11:aa:
         7a:0e:19:3d:7a:35:3a:32:91:e9:a6:78:98:b6:36:07:53:97:
         11:0d:df:0c:04:c7:83:f8:34:e9:92:dc:c8:e0:09:1f:24:b8:
         09:66:4c:fc:d9:76:c5:19:84:fd:0c:9c:8b:3c:bf:32:32:d8:
         f4:71:0c:b9:63:ac:0f:9a:e6:3f:13:51:c4:dc:7c:5b:bd:da:
         00:af:2e:5f
-----BEGIN CERTIFICATE-----
MIIEIjCCAwqgAwIBAgIEEAAA4jANBgkqhkiG9w0BAQsFADBEMQswCQYDVQQGEwJE
RTEPMA0GA1UECAwGSGVzc2VuMRQwEgYDVQQKDAtwcml2YWN5aWRlYTEOMAwGA1UE
AwwFQ0EwMDEwHhcNMTkwODI4MTAzNTI3WhcNMjAwODI3MTAzNTI3WjBQMQ8wDQYD
VQQLDAZyZWFsbTExEjAQBgNVBAMMCWNvcm5lbGl1czEpMCcGCSqGSIb3DQEJARYa
dXNlckBsb2NhbGhvc3QubG9jYWxkb21haW4wggEiMA0GCSqGSIb3DQEBAQUAA4IB
DwAwggEKAoIBAQCwQYVL/yqcjVr+td1NhVADYujE+hYc/thGzVJPPvDsjrMZqxUG
YeKCAG0JGOyL0B2flAjb+1I7t/VUc5mvP07tjjkJDxRN16+p2wY7q9KHcezZciKQ
rD4ZHqbScFdPiHL0S57MqpzpBpUZ12o3bh933KHv5MbJEqBiYupHdHRyxkW5GuyL
/wVetwl+C3nR+PPPc24NwCrBduJccMqHZ2/jekrv1wv54RWDt0avhJxK2ojbq2bW
/yHVS+4iPgkneeXAtevmPvZLhjf7lVzRdWkVzqRKGduvw7yAgZyJEh9TU5rU+Yk9
yhzANATzfvWoFby36evP0YKrmt+0+WPuG8FLAgMBAAGjggEOMIIBCjALBgNVHQ8E
BAMCBaAwCQYDVR0TBAIwADARBglghkgBhvhCAQEEBAMCBkAwMwYJYIZIAYb4QgEN
BCYWJE9wZW5TU0wgR2VuZXJhdGVkIFNlcnZlciBDZXJ0aWZpY2F0ZTAdBgNVHQ4E
FgQUzHI8uh7na++ogLaKkFOvROhKli4wdAYDVR0jBG0wa4AU9KfAzJFGr2TzkfIn
+Miyb4qHMnOhSKRGMEQxCzAJBgNVBAYTAkRFMQ8wDQYDVQQIDAZIZXNzZW4xFDAS
BgNVBAoMC3ByaXZhY3lpZGVhMQ4wDAYDVQQDDAVDQTAwMYIJAPvI66yDzRIHMBMG
A1UdJQQMMAoGCCsGAQUFBwMBMA0GCSqGSIb3DQEBCwUAA4IBAQB03U4tVM/he+3Z
uvjchU/sa3L8GPwQWq44BRO3Ux4PzaOvM5CEsvr7JDkdv+kDdgcseBfyem6LO5Qs
H4EY1/IPSCGajPG/pnDzDpAq6B8ZgQFfza7sO0/369yHhG0X5ciw9NrFuhBvWPri
BDhaNkCnLTIJLuUmoi/hzsp4kXXzNOwGhzF255EgYfZd04OaTZoR7NGMNEfGRlAP
duKrvBlEJJN19tu2ghEvWgDeZsCNOyXNEap6Dhk9ejU6MpHppniYtjYHU5cRDd8M
BMeD+DTpktzI4AkfJLgJZkz82XbFGYT9DJyLPL8yMtj0cQy5Y6wPmuY/E1HE3Hxb
vdoAry5f
-----END CERTIFICATE-----
