Certificate:
    Data:
        Version: 3 (0x2)
        Serial Number: 268435676 (0x100000dc)
        Signature Algorithm: sha256WithRSAEncryption
        Issuer: C=DE, ST=Hessen, O=privacyidea, CN=CA001
        Validity
            Not Before: Aug 28 10:03:34 2019 GMT
            Not After : Aug 27 10:03:34 2020 GMT
        Subject: OU=realm1, CN=cornelius/emailAddress=user@localhost.localdomain
        Subject Public Key Info:
            Public Key Algorithm: rsaEncryption
                RSA Public-Key: (2048 bit)
                Modulus:
                    00:c3:64:1f:42:8d:18:76:6b:d3:4e:79:02:dd:e7:
                    81:5c:0f:c9:e6:68:49:0f:6d:88:75:39:6e:de:54:
                    12:5d:40:be:1b:00:9b:82:99:57:82:04:cd:7b:7f:
                    be:44:6f:fa:b5:63:5c:a0:73:f0:52:6b:2d:36:05:
                    db:ed:08:2e:75:a1:a5:a9:c9:7a:f6:2d:c6:43:25:
                    c2:79:bc:63:e5:89:03:af:45:42:da:01:bf:dd:95:
                    3a:3a:c7:32:66:01:80:fe:de:cc:f2:11:bf:76:60:
                    6d:11:21:90:bb:cd:c2:0b:4f:f7:d3:28:63:6c:01:
                    c9:58:93:c0:42:f5:df:92:45:9f:a5:e5:52:2f:f1:
                    0c:ca:6d:f2:3b:36:39:32:54:be:74:f6:b4:c0:62:
                    27:65:ee:ba:9d:fe:c5:cc:59:c1:19:69:7a:02:b3:
                    ca:e4:c0:9c:23:57:2d:c8:c1:62:92:43:d3:1c:72:
                    32:8a:7d:b7:d3:6b:11:2f:e8:8f:90:e1:29:06:2d:
                    fc:4f:af:e9:3a:5b:49:dc:ea:41:a8:23:49:76:8d:
                    16:d5:26:90:13:57:f0:c7:81:79:de:b6:32:cb:bb:
                    e7:91:c5:3d:f1:32:6a:d4:65:6b:ea:92:e3:16:aa:
                    a8:15:fd:f0:db:54:fa:ce:fa:5f:39:c4:79:1d:33:
                    e6:9b
                Exponent: 65537 (0x10001)
        X509v3 extensions:
            X509v3 Key Usage: 
                Digital Signature, Key Encipherment
            X509v3 Basic Constraints: 
                CA:FALSE
            Netscape Cert Type: 
                SSL Server
            Netscape Comment: 
                OpenSSL Generated Server Certificate
            X509v3 Subject Key Identifier: 
                8B:69:98:1C:14:7E:2F:82:E9:20:7D:E4:10:66:C8:14:74:0A:F0:DA
            X509v3 Authority Key Identifier: 
                keyid:F4:A7:C0:CC:91:46:AF:64:F3:91:F2:27:F8:C8:B2:6F:8A:87:32:73
                DirName:/C=DE/ST=Hessen/O=privacyidea/CN=CA001
                serial:FB:C8:EB:AC:83:CD:12:07

            X509v3 Extended Key Usage: 
                TLS Web Server Authentication
    Signature Algorithm: sha256WithRSAEncryption
         5c:e2:57:8d:4e:32:33:a9:e1:5d:a0:0a:4f:7e:e0:6a:a7:f5:
         71:cb:95:1f:b5:98:4f:9f:c9:e9:49:a8:a3:31:e5:fb:9c:b4:
         52:dc:82:0a:43:2c:30:2f:35:fc:00:90:73:21:50:47:a9:ae:
         96:6e:1e:ca:e9:48:df:03:3f:c9:e8:eb:b6:4a:80:60:55:5e:
         c1:f2:bd:25:be:84:ee:99:c2:4f:19:ad:ad:b0:17:7d:65:b6:
         d4:b4:5b:a4:12:e4:84:7f:f1:46:43:a4:ce:66:c3:bb:40:40:
         c7:59:87:bb:f3:bb:54:3e:40:b5:03:49:86:ca:16:f4:ee:b5:
         f9:50:e9:48:2c:69:eb:69:b1:ec:76:70:71:0e:7f:8c:c3:ef:
         f3:68:78:42:4f:67:9a:2a:42:1c:93:d2:56:54:d9:7d:01:49:
         d8:6a:07:db:30:d0:bf:53:cd:f3:53:39:fd:d0:44:5a:28:11:
         57:5f:36:28:9e:b0:cb:a1:b0:0e:66:8f:7b:66:d7:a9:a4:69:
         db:a1:0d:9e:ea:11:f4:7a:4f:ce:32:7f:0a:a6:93:39:80:22:
         37:a7:70:bb:2c:10:c2:20:5b:5e:50:10:dc:78:4b:0f:ea:4a:
         08:32:d2:b0:f3:6d:1e:24:e4:f6:97:ba:5c:31:07:d5:22:4e:
         f4:cd:4e:af
-----BEGIN CERTIFICATE-----
MIIEIjCCAwqgAwIBAgIEEAAA3DANBgkqhkiG9w0BAQsFADBEMQswCQYDVQQGEwJE
RTEPMA0GA1UECAwGSGVzc2VuMRQwEgYDVQQKDAtwcml2YWN5aWRlYTEOMAwGA1UE
AwwFQ0EwMDEwHhcNMTkwODI4MTAwMzM0WhcNMjAwODI3MTAwMzM0WjBQMQ8wDQYD
VQQLDAZyZWFsbTExEjAQBgNVBAMMCWNvcm5lbGl1czEpMCcGCSqGSIb3DQEJARYa
dXNlckBsb2NhbGhvc3QubG9jYWxkb21haW4wggEiMA0GCSqGSIb3DQEBAQUAA4IB
DwAwggEKAoIBAQDDZB9CjRh2a9NOeQLd54FcD8nmaEkPbYh1OW7eVBJdQL4bAJuC
mVeCBM17f75Eb/q1Y1ygc/BSay02BdvtCC51oaWpyXr2LcZDJcJ5vGPliQOvRULa
Ab/dlTo6xzJmAYD+3szyEb92YG0RIZC7zcILT/fTKGNsAclYk8BC9d+SRZ+l5VIv
8QzKbfI7NjkyVL509rTAYidl7rqd/sXMWcEZaXoCs8rkwJwjVy3IwWKSQ9MccjKK
fbfTaxEv6I+Q4SkGLfxPr+k6W0nc6kGoI0l2jRbVJpATV/DHgXnetjLLu+eRxT3x
MmrUZWvqkuMWqqgV/fDbVPrO+l85xHkdM+abAgMBAAGjggEOMIIBCjALBgNVHQ8E
BAMCBaAwCQYDVR0TBAIwADARBglghkgBhvhCAQEEBAMCBkAwMwYJYIZIAYb4QgEN
BCYWJE9wZW5TU0wgR2VuZXJhdGVkIFNlcnZlciBDZXJ0aWZpY2F0ZTAdBgNVHQ4E
FgQUi2mYHBR+L4LpIH3kEGbIFHQK8NowdAYDVR0jBG0wa4AU9KfAzJFGr2TzkfIn
+Miyb4qHMnOhSKRGMEQxCzAJBgNVBAYTAkRFMQ8wDQYDVQQIDAZIZXNzZW4xFDAS
BgNVBAoMC3ByaXZhY3lpZGVhMQ4wDAYDVQQDDAVDQTAwMYIJAPvI66yDzRIHMBMG
A1UdJQQMMAoGCCsGAQUFBwMBMA0GCSqGSIb3DQEBCwUAA4IBAQBc4leNTjIzqeFd
oApPfuBqp/Vxy5UftZhPn8npSaijMeX7nLRS3IIKQywwLzX8AJBzIVBHqa6Wbh7K
6UjfAz/J6Ou2SoBgVV7B8r0lvoTumcJPGa2tsBd9ZbbUtFukEuSEf/FGQ6TOZsO7
QEDHWYe787tUPkC1A0mGyhb07rX5UOlILGnrabHsdnBxDn+Mw+/zaHhCT2eaKkIc
k9JWVNl9AUnYagfbMNC/U83zUzn90ERaKBFXXzYonrDLobAOZo97ZteppGnboQ2e
6hH0ek/OMn8KppM5gCI3p3C7LBDCIFteUBDceEsP6koIMtKw820eJOT2l7pcMQfV
Ik70zU6v
-----END CERTIFICATE-----
