Certificate:
    Data:
        Version: 3 (0x2)
        Serial Number: 268435664 (0x100000d0)
        Signature Algorithm: sha256WithRSAEncryption
        Issuer: C=DE, ST=Hessen, O=privacyidea, CN=CA001
        Validity
            Not Before: Sep  3 21:59:56 2019 GMT
            Not After : Sep  2 21:59:56 2020 GMT
        Subject: C=DE, ST=Hessen, O=privacyidea, CN=requester.localdomain
        Subject Public Key Info:
            Public Key Algorithm: rsaEncryption
                RSA Public-Key: (2048 bit)
                Modulus:
                    00:cd:be:14:4f:fa:ce:01:3f:42:22:1b:1d:9c:af:
                    dd:92:d2:7f:db:6c:b7:3e:39:43:43:6b:13:03:f1:
                    05:f4:07:74:bc:76:69:28:0b:af:19:8e:d7:fc:e3:
                    cd:c6:58:f2:ca:7f:08:6d:53:fc:07:02:44:24:c6:
                    b4:34:4c:8c:04:fe:33:0e:40:e2:20:ba:02:73:5a:
                    f7:f5:4f:63:6e:cc:c6:b6:df:54:1d:37:39:7d:51:
                    36:26:5f:bd:dc:3f:a8:8b:6b:a2:ae:b6:9d:d6:21:
                    e7:df:41:b8:7a:28:2a:68:48:ca:a8:2d:ed:e1:e9:
                    46:5e:5a:72:6d:b4:84:38:87:91:fd:94:11:0b:28:
                    84:c6:c2:2f:2a:fb:01:f9:36:7a:09:75:d1:33:88:
                    3c:73:41:5b:c8:bf:94:89:70:a1:f0:c0:b9:2e:50:
                    53:1e:b1:17:64:69:f4:2d:81:e0:a9:0d:0e:32:e9:
                    ba:55:8a:85:f1:1b:6f:49:79:b4:7f:88:c3:0d:3e:
                    54:88:9b:3d:1f:38:8c:04:f3:ee:6a:63:2b:f5:c6:
                    db:b4:83:aa:c4:78:41:3a:7d:4b:e1:c8:3e:71:ca:
                    1b:61:59:ea:c6:c4:ca:32:5e:c9:e9:bf:12:29:e6:
                    c6:c3:63:fe:a0:55:da:7a:f1:60:98:4d:26:ed:fa:
                    70:2d
                Exponent: 65537 (0x10001)
        X509v3 extensions:
            X509v3 Key Usage: 
                Digital Signature, Key Encipherment
            X509v3 Basic Constraints: 
                CA:FALSE
            Netscape Cert Type: 
                SSL Server
            Netscape Comment: 
                OpenSSL Generated Server Certificate
            X509v3 Subject Key Identifier: 
                53:3F:ED:5D:09:07:B3:65:7B:AB:45:C9:24:5B:09:77:80:0A:96:ED
            X509v3 Authority Key Identifier: 
                keyid:F4:A7:C0:CC:91:46:AF:64:F3:91:F2:27:F8:C8:B2:6F:8A:87:32:73
                DirName:/C=DE/ST=Hessen/O=privacyidea/CN=CA001
                serial:FB:C8:EB:AC:83:CD:12:07

            X509v3 Extended Key Usage: 
                TLS Web Server Authentication
    Signature Algorithm: sha256WithRSAEncryption
         a5:35:3c:be:bb:d8:9c:0a:69:f0:5b:3a:66:80:97:13:6a:fb:
         44:5b:a8:68:c6:f6:1d:3d:e5:f6:60:2f:fb:6e:3b:26:de:54:
         93:be:a9:9c:9a:24:72:3e:73:5c:21:a6:e5:09:1e:2a:8a:4e:
         f4:28:f2:eb:32:0a:32:28:5b:49:2a:09:31:ea:72:64:48:1a:
         51:3f:0f:4c:e5:7b:0b:6d:20:4b:f6:cc:a9:37:0c:95:72:45:
         8b:b8:be:89:de:63:54:91:85:e1:03:74:94:c7:1b:22:8e:49:
         98:60:3a:b9:a7:21:4f:f2:f0:75:1e:42:4c:ec:fb:1f:4d:fb:
         ca:c5:b0:6c:0a:49:04:c6:74:27:0e:b3:1c:cb:61:51:4e:e0:
         1c:3b:17:10:9d:6a:28:3b:34:80:4e:c7:40:0d:ce:03:4e:70:
         db:c4:ef:b2:a4:3c:61:fc:2e:72:d9:12:51:c6:ce:3e:3c:d6:
         89:3d:52:13:a3:99:9b:aa:e1:79:b7:ab:d3:37:78:bd:a6:0a:
         56:16:b7:db:de:ab:c9:63:53:88:bd:10:59:65:72:c1:66:94:
         75:0b:9c:ce:ab:81:56:37:0b:09:ba:86:c6:5f:c7:32:ba:47:
         06:30:ec:14:f5:cd:9a:9a:71:ba:f8:d4:d1:91:20:8e:dd:0b:
         d1:43:b2:2d
-----BEGIN CERTIFICATE-----
MIIEJjCCAw6gAwIBAgIEEAAA0DANBgkqhkiG9w0BAQsFADBEMQswCQYDVQQGEwJE
RTEPMA0GA1UECAwGSGVzc2VuMRQwEgYDVQQKDAtwcml2YWN5aWRlYTEOMAwGA1UE
AwwFQ0EwMDEwHhcNMTkwOTAzMjE1OTU2WhcNMjAwOTAyMjE1OTU2WjBUMQswCQYD
VQQGEwJERTEPMA0GA1UECAwGSGVzc2VuMRQwEgYDVQQKDAtwcml2YWN5aWRlYTEe
MBwGA1UEAwwVcmVxdWVzdGVyLmxvY2FsZG9tYWluMIIBIjANBgkqhkiG9w0BAQEF
AAOCAQ8AMIIBCgKCAQEAzb4UT/rOAT9CIhsdnK/dktJ/22y3PjlDQ2sTA/EF9Ad0
vHZpKAuvGY7X/OPNxljyyn8IbVP8BwJEJMa0NEyMBP4zDkDiILoCc1r39U9jbszG
tt9UHTc5fVE2Jl+93D+oi2uirrad1iHn30G4eigqaEjKqC3t4elGXlpybbSEOIeR
/ZQRCyiExsIvKvsB+TZ6CXXRM4g8c0FbyL+UiXCh8MC5LlBTHrEXZGn0LYHgqQ0O
Mum6VYqF8RtvSXm0f4jDDT5UiJs9HziMBPPuamMr9cbbtIOqxHhBOn1L4cg+ccob
YVnqxsTKMl7J6b8SKebGw2P+oFXaevFgmE0m7fpwLQIDAQABo4IBDjCCAQowCwYD
VR0PBAQDAgWgMAkGA1UdEwQCMAAwEQYJYIZIAYb4QgEBBAQDAgZAMDMGCWCGSAGG
+EIBDQQmFiRPcGVuU1NMIEdlbmVyYXRlZCBTZXJ2ZXIgQ2VydGlmaWNhdGUwHQYD
VR0OBBYEFFM/7V0JB7Nle6tFySRbCXeACpbtMHQGA1UdIwRtMGuAFPSnwMyRRq9k
85HyJ/jIsm+KhzJzoUikRjBEMQswCQYDVQQGEwJERTEPMA0GA1UECAwGSGVzc2Vu
MRQwEgYDVQQKDAtwcml2YWN5aWRlYTEOMAwGA1UEAwwFQ0EwMDGCCQD7yOusg80S
BzATBgNVHSUEDDAKBggrBgEFBQcDATANBgkqhkiG9w0BAQsFAAOCAQEApTU8vrvY
nApp8Fs6ZoCXE2r7RFuoaMb2HT3l9mAv+247Jt5Uk76pnJokcj5zXCGm5QkeKopO
9Cjy6zIKMihbSSoJMepyZEgaUT8PTOV7C20gS/bMqTcMlXJFi7i+id5jVJGF4QN0
lMcbIo5JmGA6uachT/LwdR5CTOz7H037ysWwbApJBMZ0Jw6zHMthUU7gHDsXEJ1q
KDs0gE7HQA3OA05w28TvsqQ8YfwuctkSUcbOPjzWiT1SE6OZm6rheber0zd4vaYK
Vha3296ryWNTiL0QWWVywWaUdQuczquBVjcLCbqGxl/HMrpHBjDsFPXNmppxuvjU
0ZEgjt0L0UOyLQ==
-----END CERTIFICATE-----
