Certificate:
    Data:
        Version: 3 (0x2)
        Serial Number: 268435678 (0x100000de)
        Signature Algorithm: sha256WithRSAEncryption
        Issuer: C=DE, ST=Hessen, O=privacyidea, CN=CA001
        Validity
            Not Before: Aug 28 10:24:07 2019 GMT
            Not After : Aug 27 10:24:07 2020 GMT
        Subject: OU=realm1, CN=cornelius/emailAddress=user@localhost.localdomain
        Subject Public Key Info:
            Public Key Algorithm: rsaEncryption
                RSA Public-Key: (2048 bit)
                Modulus:
                    00:a5:28:03:9c:d3:92:3b:b6:0d:65:3c:3a:c9:2d:
                    6b:61:5e:f0:9f:7d:c5:b9:02:95:51:b1:9e:a3:77:
                    87:ed:77:ad:0f:71:c5:da:2f:e2:e6:3b:e0:54:2d:
                    d7:67:70:83:64:88:4c:06:3a:1c:7b:bd:0b:b3:3c:
                    5d:e0:da:c9:50:d6:40:45:92:b2:66:89:6c:17:1a:
                    a6:72:ec:c0:5b:ac:c4:aa:71:12:02:9d:e0:f8:95:
                    db:0c:74:fb:f5:0a:ed:7d:b5:97:b9:cf:e7:a9:c2:
                    a5:e3:1c:60:e1:ee:de:02:62:07:a2:00:e2:df:ee:
                    4c:eb:09:ee:9c:35:79:e6:b4:ca:74:30:a4:2d:8e:
                    79:6a:9c:b2:1d:16:db:cb:56:7f:ae:c9:18:c9:aa:
                    ed:a7:f1:cb:c3:38:91:ce:cf:bf:82:3d:db:5f:2b:
                    b4:91:16:0b:04:d7:bc:4b:9b:71:40:56:c8:cf:6e:
                    e6:ec:8f:1a:24:49:cd:8a:9c:63:fa:50:bf:e9:ec:
                    f1:0e:2b:5e:75:f4:ef:a7:84:cd:df:76:02:14:90:
                    67:75:ab:25:f2:c4:63:01:14:64:93:5e:ac:b9:b1:
                    5a:dc:b5:f8:89:fe:bb:6b:c5:d6:82:05:48:eb:6b:
                    03:bb:1e:9e:40:5c:c0:5d:0b:1c:82:cb:2c:59:8e:
                    c2:47
                Exponent: 65537 (0x10001)
        X509v3 extensions:
            X509v3 Key Usage: 
                Digital Signature, Key Encipherment
            X509v3 Basic Constraints: 
                CA:FALSE
            Netscape Cert Type: 
                SSL Server
            Netscape Comment: 
                OpenSSL Generated Server Certificate
            X509v3 Subject Key Identifier: 
                A0:0A:96:91:9B:74:C3:24:E4:43:A6:F5:C7:70:A3:DA:DA:BE:96:F1
            X509v3 Authority Key Identifier: 
                keyid:F4:A7:C0:CC:91:46:AF:64:F3:91:F2:27:F8:C8:B2:6F:8A:87:32:73
                DirName:/C=DE/ST=Hessen/O=privacyidea/CN=CA001
                serial:FB:C8:EB:AC:83:CD:12:07

            X509v3 Extended Key Usage: 
                TLS Web Server Authentication
    Signature Algorithm: sha256WithRSAEncryption
         62:11:43:c2:84:ef:a6:e2:79:b0:31:fd:3e:31:0b:73:20:72:
         3b:a7:2c:e6:13:3c:ea:c2:05:0f:e2:f2:c6:c7:83:ca:06:79:
         fe:1e:10:31:02:85:99:77:0d:8b:90:40:b3:0d:15:d5:4e:7c:
         1e:1a:a9:a4:da:1b:8d:c4:73:a8:11:fc:44:09:d2:94:a0:36:
         48:9c:c4:5c:32:90:cc:76:3a:36:34:f8:2a:fc:fc:0c:c7:c8:
         41:f2:53:d0:84:89:82:c5:4c:ad:2e:62:f0:7a:40:60:43:0e:
         fd:91:ba:f7:ab:53:84:e3:cb:4b:39:ec:b1:50:de:61:0b:57:
         6c:40:40:8d:47:e7:79:c6:d7:a9:97:5b:36:94:61:0c:8c:a2:
         12:34:b2:46:b5:40:4d:c7:9c:a4:14:b1:fe:fb:76:09:9d:0e:
         a1:0d:11:14:ad:aa:5d:c7:17:b9:c4:0c:10:eb:47:3e:00:f5:
         b5:49:b3:db:69:28:b3:7e:7c:54:33:09:02:c4:03:1d:21:e8:
         69:27:9a:15:2b:7b:89:29:ba:2b:f4:ea:db:96:9a:9a:a2:1b:
         64:7e:52:54:6e:b9:9c:f4:3a:0f:82:86:27:a3:06:19:25:f0:
         3b:3d:c4:9f:45:0c:58:c6:0b:70:09:d4:81:09:a3:14:52:95:
         64:fa:4b:c5
-----BEGIN CERTIFICATE-----
MIIEIjCCAwqgAwIBAgIEEAAA3jANBgkqhkiG9w0BAQsFADBEMQswCQYDVQQGEwJE
RTEPMA0GA1UECAwGSGVzc2VuMRQwEgYDVQQKDAtwcml2YWN5aWRlYTEOMAwGA1UE
AwwFQ0EwMDEwHhcNMTkwODI4MTAyNDA3WhcNMjAwODI3MTAyNDA3WjBQMQ8wDQYD
VQQLDAZyZWFsbTExEjAQBgNVBAMMCWNvcm5lbGl1czEpMCcGCSqGSIb3DQEJARYa
dXNlckBsb2NhbGhvc3QubG9jYWxkb21haW4wggEiMA0GCSqGSIb3DQEBAQUAA4IB
DwAwggEKAoIBAQClKAOc05I7tg1lPDrJLWthXvCffcW5ApVRsZ6jd4ftd60PccXa
L+LmO+BULddncINkiEwGOhx7vQuzPF3g2slQ1kBFkrJmiWwXGqZy7MBbrMSqcRIC
neD4ldsMdPv1Cu19tZe5z+epwqXjHGDh7t4CYgeiAOLf7kzrCe6cNXnmtMp0MKQt
jnlqnLIdFtvLVn+uyRjJqu2n8cvDOJHOz7+CPdtfK7SRFgsE17xLm3FAVsjPbubs
jxokSc2KnGP6UL/p7PEOK1519O+nhM3fdgIUkGd1qyXyxGMBFGSTXqy5sVrctfiJ
/rtrxdaCBUjrawO7Hp5AXMBdCxyCyyxZjsJHAgMBAAGjggEOMIIBCjALBgNVHQ8E
BAMCBaAwCQYDVR0TBAIwADARBglghkgBhvhCAQEEBAMCBkAwMwYJYIZIAYb4QgEN
BCYWJE9wZW5TU0wgR2VuZXJhdGVkIFNlcnZlciBDZXJ0aWZpY2F0ZTAdBgNVHQ4E
FgQUoAqWkZt0wyTkQ6b1x3Cj2tq+lvEwdAYDVR0jBG0wa4AU9KfAzJFGr2TzkfIn
+Miyb4qHMnOhSKRGMEQxCzAJBgNVBAYTAkRFMQ8wDQYDVQQIDAZIZXNzZW4xFDAS
BgNVBAoMC3ByaXZhY3lpZGVhMQ4wDAYDVQQDDAVDQTAwMYIJAPvI66yDzRIHMBMG
A1UdJQQMMAoGCCsGAQUFBwMBMA0GCSqGSIb3DQEBCwUAA4IBAQBiEUPChO+m4nmw
Mf0+MQtzIHI7pyzmEzzqwgUP4vLGx4PKBnn+HhAxAoWZdw2LkECzDRXVTnweGqmk
2huNxHOoEfxECdKUoDZInMRcMpDMdjo2NPgq/PwMx8hB8lPQhImCxUytLmLwekBg
Qw79kbr3q1OE48tLOeyxUN5hC1dsQECNR+d5xtepl1s2lGEMjKISNLJGtUBNx5yk
FLH++3YJnQ6hDREUrapdxxe5xAwQ60c+APW1SbPbaSizfnxUMwkCxAMdIehpJ5oV
K3uJKbor9OrblpqaohtkflJUbrmc9DoPgoYnowYZJfA7PcSfRQxYxgtwCdSBCaMU
UpVk+kvF
-----END CERTIFICATE-----
