Certificate:
    Data:
        Version: 3 (0x2)
        Serial Number: 268435668 (0x100000d4)
        Signature Algorithm: sha256WithRSAEncryption
        Issuer: C=DE, ST=Hessen, O=privacyidea, CN=CA001
        Validity
            Not Before: Sep  3 22:01:26 2019 GMT
            Not After : Sep  2 22:01:26 2020 GMT
        Subject: CN=Steve Test/emailAddress=steve@openssl.org
        Subject Public Key Info:
            Public Key Algorithm: rsaEncryption
                RSA Public-Key: (2048 bit)
                Modulus:
                    00:d2:81:89:20:51:48:0f:73:f4:11:32:24:d5:1f:
                    1c:fd:5c:f5:b6:e6:c5:f0:52:81:dc:d2:af:66:4a:
                    7c:93:31:61:5c:af:d1:6d:06:70:03:60:7c:72:0c:
                    88:dd:49:cd:9e:02:6c:d2:5a:d7:53:0f:f3:da:be:
                    69:64:b5:0f:0c:00:e3:b3:50:47:a3:b3:9b:ba:13:
                    50:d6:58:5a:4b:ab:39:e0:11:ca:0a:27:67:03:78:
                    22:66:6d:92:1e:1b:5c:49:ae:e6:6b:d1:8e:3b:9d:
                    06:d3:c6:ac:4d:53:43:10:ab:e8:96:c1:87:82:97:
                    99:8f:20:d3:99:12:37:31:84:e1:8a:ff:29:03:5f:
                    22:90:3e:7f:9b:e0:20:c1:ad:dc:ae:4c:39:1a:31:
                    96:17:02:8c:b2:d9:b4:0d:20:12:9b:7d:86:54:fd:
                    33:fd:c1:2a:62:46:f8:60:96:cf:6e:01:6f:22:df:
                    13:47:e7:97:ec:05:72:23:a3:62:f8:fa:ef:ac:9c:
                    72:f0:37:cb:2f:37:cf:90:a8:27:51:86:c6:d7:78:
                    08:8f:7e:25:a2:15:70:a2:fb:1c:b6:15:5e:a0:97:
                    8b:81:4c:09:28:8a:27:3b:94:bc:71:db:5b:71:37:
                    9a:2b:16:e0:6f:b5:c9:f5:4b:4f:20:ba:65:cf:af:
                    ad:ad
                Exponent: 65537 (0x10001)
        X509v3 extensions:
            X509v3 Key Usage: 
                Digital Signature, Key Encipherment
            X509v3 Basic Constraints: 
                CA:FALSE
            Netscape Cert Type: 
                SSL Server
            Netscape Comment: 
                OpenSSL Generated Server Certificate
            X509v3 Subject Key Identifier: 
                E5:25:6D:3E:AF:0D:DD:3F:4C:F2:45:19:39:D5:14:DB:7E:9C:C0:AD
            X509v3 Authority Key Identifier: 
                keyid:F4:A7:C0:CC:91:46:AF:64:F3:91:F2:27:F8:C8:B2:6F:8A:87:32:73
                DirName:/C=DE/ST=Hessen/O=privacyidea/CN=CA001
                serial:FB:C8:EB:AC:83:CD:12:07

            X509v3 Extended Key Usage: 
                TLS Web Server Authentication
    Signature Algorithm: sha256WithRSAEncryption
         a7:82:bf:2d:31:2d:b5:3d:b3:97:47:b3:f8:97:3b:9f:7b:fa:
         ea:9a:73:dd:d0:84:fa:fc:eb:c0:6d:73:ba:0c:96:3e:80:2e:
         2b:67:c1:1d:ab:67:6a:59:42:95:70:ef:f2:e9:58:78:12:8f:
         3c:45:62:3f:d8:e7:5d:45:c6:12:49:c8:2d:e8:c8:11:e4:94:
         66:a5:c4:d8:12:21:f4:38:75:15:32:81:11:8c:7b:55:31:a8:
         ce:cd:a5:9c:43:6e:ae:39:18:ae:ec:22:67:e6:f4:58:ff:2e:
         d0:90:43:ca:6d:20:41:9a:8a:a6:ce:9a:7b:29:68:06:28:a1:
         36:09:bc:62:29:54:ec:d3:e6:a8:90:98:73:6a:ed:68:8d:85:
         59:20:65:af:f9:53:4d:a7:4c:62:7b:61:0b:30:52:a2:86:05:
         5d:92:06:b4:9f:46:b7:89:4e:68:1f:d8:4e:c3:df:ed:71:9c:
         29:48:1d:b6:54:bf:7b:7c:ea:4e:dc:a6:a9:37:ff:6e:1d:db:
         9e:dc:43:3d:5d:63:e5:b4:6c:50:3b:c4:25:25:68:20:06:19:
         e2:48:26:03:9c:a1:a2:97:a4:4a:a3:24:c1:39:46:da:ad:7e:
         1b:f2:b1:20:31:87:2c:04:71:24:7b:01:db:88:15:3a:8d:80:
         d4:77:64:6f
-----BEGIN CERTIFICATE-----
MIIECTCCAvGgAwIBAgIEEAAA1DANBgkqhkiG9w0BAQsFADBEMQswCQYDVQQGEwJE
RTEPMA0GA1UECAwGSGVzc2VuMRQwEgYDVQQKDAtwcml2YWN5aWRlYTEOMAwGA1UE
AwwFQ0EwMDEwHhcNMTkwOTAzMjIwMTI2WhcNMjAwOTAyMjIwMTI2WjA3MRMwEQYD
VQQDDApTdGV2ZSBUZXN0MSAwHgYJKoZIhvcNAQkBFhFzdGV2ZUBvcGVuc3NsLm9y
ZzCCASIwDQYJKoZIhvcNAQEBBQADggEPADCCAQoCggEBANKBiSBRSA9z9BEyJNUf
HP1c9bbmxfBSgdzSr2ZKfJMxYVyv0W0GcANgfHIMiN1JzZ4CbNJa11MP89q+aWS1
DwwA47NQR6Ozm7oTUNZYWkurOeARygonZwN4ImZtkh4bXEmu5mvRjjudBtPGrE1T
QxCr6JbBh4KXmY8g05kSNzGE4Yr/KQNfIpA+f5vgIMGt3K5MORoxlhcCjLLZtA0g
Ept9hlT9M/3BKmJG+GCWz24BbyLfE0fnl+wFciOjYvj676yccvA3yy83z5CoJ1GG
xtd4CI9+JaIVcKL7HLYVXqCXi4FMCSiKJzuUvHHbW3E3misW4G+1yfVLTyC6Zc+v
ra0CAwEAAaOCAQ4wggEKMAsGA1UdDwQEAwIFoDAJBgNVHRMEAjAAMBEGCWCGSAGG
+EIBAQQEAwIGQDAzBglghkgBhvhCAQ0EJhYkT3BlblNTTCBHZW5lcmF0ZWQgU2Vy
dmVyIENlcnRpZmljYXRlMB0GA1UdDgQWBBTlJW0+rw3dP0zyRRk51RTbfpzArTB0
BgNVHSMEbTBrgBT0p8DMkUavZPOR8if4yLJviocyc6FIpEYwRDELMAkGA1UEBhMC
REUxDzANBgNVBAgMBkhlc3NlbjEUMBIGA1UECgwLcHJpdmFjeWlkZWExDjAMBgNV
BAMMBUNBMDAxggkA+8jrrIPNEgcwEwYDVR0lBAwwCgYIKwYBBQUHAwEwDQYJKoZI
hvcNAQELBQADggEBAKeCvy0xLbU9s5dHs/iXO597+uqac93QhPr868Btc7oMlj6A
LitnwR2rZ2pZQpVw7/LpWHgSjzxFYj/Y511FxhJJyC3oyBHklGalxNgSIfQ4dRUy
gRGMe1UxqM7NpZxDbq45GK7sImfm9Fj/LtCQQ8ptIEGaiqbOmnspaAYooTYJvGIp
VOzT5qiQmHNq7WiNhVkgZa/5U02nTGJ7YQswUqKGBV2SBrSfRreJTmgf2E7D3+1x
nClIHbZUv3t86k7cpqk3/24d257cQz1dY+W0bFA7xCUlaCAGGeJIJgOcoaKXpEqj
JME5RtqtfhvysSAxhywEcSR7AduIFTqNgNR3ZG8=
-----END CERTIFICATE-----
