Certificate:
    Data:
        Version: 3 (0x2)
        Serial Number: 268435686 (0x100000e6)
        Signature Algorithm: sha256WithRSAEncryption
        Issuer: C=DE, ST=Hessen, O=privacyidea, CN=CA001
        Validity
            Not Before: Aug 15 09:29:09 2019 GMT
            Not After : Aug 14 09:29:09 2020 GMT
        Subject: OU=realm1, CN=cornelius/emailAddress=user@localhost.localdomain
        Subject Public Key Info:
            Public Key Algorithm: rsaEncryption
                RSA Public-Key: (2048 bit)
                Modulus:
                    00:9e:fc:48:c7:49:75:50:9a:cc:f1:7a:55:7a:48:
                    77:99:62:85:05:be:f0:85:fa:26:a7:76:a8:69:44:
                    36:12:f3:64:70:76:1b:e6:53:df:80:3e:bf:96:98:
                    d5:e1:8b:23:e8:1e:eb:1b:6d:dc:78:06:fe:ec:08:
                    2d:12:fc:38:5f:39:8d:d6:a9:08:08:da:4b:de:2f:
                    7f:0b:c1:5a:02:f6:fa:40:94:22:95:6b:86:c2:e6:
                    98:ee:04:e5:aa:a7:15:d5:41:45:d4:9f:01:4c:71:
                    42:cd:75:81:0d:54:be:a7:4e:58:fc:61:3c:e4:27:
                    86:e9:44:2b:e1:4a:39:fc:a3:d3:df:6b:65:00:36:
                    cb:0a:1d:e6:f6:cb:1c:4e:c7:88:f5:c6:99:aa:f1:
                    71:ce:dc:c7:b3:ee:79:25:32:1d:ac:f4:76:ef:78:
                    56:32:ba:2a:86:98:74:06:2b:78:5b:40:98:3a:b8:
                    79:c9:16:18:7d:a5:c7:af:2c:cc:c6:9b:48:37:b8:
                    11:5f:22:89:54:44:27:7a:1b:e2:4b:6d:af:90:74:
                    3d:5b:53:81:bd:09:20:cf:6f:e0:ad:7d:31:af:e7:
                    ec:94:13:03:05:45:87:b3:46:57:60:35:70:e6:fc:
                    8f:13:aa:f3:1d:6d:11:d2:e4:41:c4:5c:71:2e:55:
                    a9:9b
                Exponent: 65537 (0x10001)
        X509v3 extensions:
            X509v3 Key Usage: 
                Digital Signature, Key Encipherment
            X509v3 Basic Constraints: 
                CA:FALSE
            Netscape Cert Type: 
                SSL Server
            Netscape Comment: 
                OpenSSL Generated Server Certificate
            X509v3 Subject Key Identifier: 
                0B:AE:A6:5D:43:12:D3:22:FF:1F:A4:9F:E6:63:87:F6:C7:7A:8F:37
            X509v3 Authority Key Identifier: 
                keyid:F4:A7:C0:CC:91:46:AF:64:F3:91:F2:27:F8:C8:B2:6F:8A:87:32:73
                DirName:/C=DE/ST=Hessen/O=privacyidea/CN=CA001
                serial:FB:C8:EB:AC:83:CD:12:07

            X509v3 Extended Key Usage: 
                TLS Web Server Authentication
    Signature Algorithm: sha256WithRSAEncryption
         32:cb:ea:31:cd:0b:dc:6f:43:eb:dc:8b:24:2c:55:9a:01:8d:
         66:aa:8c:46:b6:82:f8:0f:cc:d1:ea:fe:30:5a:aa:52:ee:f9:
         42:a4:f8:46:ad:12:5e:6d:8a:e2:14:9b:93:52:0d:ef:bb:3b:
         25:b5:18:6e:68:a5:ec:7d:ba:09:a5:3d:c6:1d:cb:67:02:32:
         c8:a1:4c:3e:40:bb:da:75:7c:03:a8:e7:9e:ea:09:01:39:63:
         03:e4:e6:71:b4:ae:01:f9:e3:c3:06:7c:57:9d:e2:df:a8:dd:
         8e:99:a9:1c:d6:b8:b7:b5:15:32:6c:53:4d:65:a5:d0:86:0a:
         ba:e1:37:eb:d8:2b:2e:86:18:ca:f5:01:47:65:f1:79:91:16:
         e4:a7:36:ac:df:50:eb:e3:4d:0e:6f:e0:41:c5:2b:f5:eb:94:
         ca:f0:f2:5d:c5:16:21:d4:d6:30:f7:61:c7:5c:25:fd:8e:9c:
         17:b0:e9:9b:94:31:f7:69:5b:e4:88:89:94:2f:6f:c9:e4:5f:
         ab:a6:91:e0:72:c2:ad:65:f6:fe:9a:07:0f:73:4e:a5:6c:9c:
         f3:52:f0:15:89:17:14:8e:06:78:d2:f4:3b:8f:19:b6:26:39:
         d7:b1:b9:c7:01:e4:fc:ad:e8:01:1c:ee:8b:64:92:1d:2d:cf:
         71:7a:24:28
-----BEGIN CERTIFICATE-----
MIIEIjCCAwqgAwIBAgIEEAAA5jANBgkqhkiG9w0BAQsFADBEMQswCQYDVQQGEwJE
RTEPMA0GA1UECAwGSGVzc2VuMRQwEgYDVQQKDAtwcml2YWN5aWRlYTEOMAwGA1UE
AwwFQ0EwMDEwHhcNMTkwODE1MDkyOTA5WhcNMjAwODE0MDkyOTA5WjBQMQ8wDQYD
VQQLDAZyZWFsbTExEjAQBgNVBAMMCWNvcm5lbGl1czEpMCcGCSqGSIb3DQEJARYa
dXNlckBsb2NhbGhvc3QubG9jYWxkb21haW4wggEiMA0GCSqGSIb3DQEBAQUAA4IB
DwAwggEKAoIBAQCe/EjHSXVQmszxelV6SHeZYoUFvvCF+iandqhpRDYS82Rwdhvm
U9+APr+WmNXhiyPoHusbbdx4Bv7sCC0S/DhfOY3WqQgI2kveL38LwVoC9vpAlCKV
a4bC5pjuBOWqpxXVQUXUnwFMcULNdYENVL6nTlj8YTzkJ4bpRCvhSjn8o9Pfa2UA
NssKHeb2yxxOx4j1xpmq8XHO3Mez7nklMh2s9HbveFYyuiqGmHQGK3hbQJg6uHnJ
Fhh9pcevLMzGm0g3uBFfIolURCd6G+JLba+QdD1bU4G9CSDPb+CtfTGv5+yUEwMF
RYezRldgNXDm/I8TqvMdbRHS5EHEXHEuVambAgMBAAGjggEOMIIBCjALBgNVHQ8E
BAMCBaAwCQYDVR0TBAIwADARBglghkgBhvhCAQEEBAMCBkAwMwYJYIZIAYb4QgEN
BCYWJE9wZW5TU0wgR2VuZXJhdGVkIFNlcnZlciBDZXJ0aWZpY2F0ZTAdBgNVHQ4E
FgQUC66mXUMS0yL/H6Sf5mOH9sd6jzcwdAYDVR0jBG0wa4AU9KfAzJFGr2TzkfIn
+Miyb4qHMnOhSKRGMEQxCzAJBgNVBAYTAkRFMQ8wDQYDVQQIDAZIZXNzZW4xFDAS
BgNVBAoMC3ByaXZhY3lpZGVhMQ4wDAYDVQQDDAVDQTAwMYIJAPvI66yDzRIHMBMG
A1UdJQQMMAoGCCsGAQUFBwMBMA0GCSqGSIb3DQEBCwUAA4IBAQAyy+oxzQvcb0Pr
3IskLFWaAY1mqoxGtoL4D8zR6v4wWqpS7vlCpPhGrRJebYriFJuTUg3vuzsltRhu
aKXsfboJpT3GHctnAjLIoUw+QLvadXwDqOee6gkBOWMD5OZxtK4B+ePDBnxXneLf
qN2Omakc1ri3tRUybFNNZaXQhgq64Tfr2CsuhhjK9QFHZfF5kRbkpzas31Dr400O
b+BBxSv165TK8PJdxRYh1NYw92HHXCX9jpwXsOmblDH3aVvkiImUL2/J5F+rppHg
csKtZfb+mgcPc06lbJzzUvAViRcUjgZ40vQ7jxm2JjnXsbnHAeT8regBHO6LZJId
Lc9xeiQo
-----END CERTIFICATE-----
