Certificate:
    Data:
        Version: 3 (0x2)
        Serial Number: 268435680 (0x100000e0)
        Signature Algorithm: sha256WithRSAEncryption
        Issuer: C=DE, ST=Hessen, O=privacyidea, CN=CA001
        Validity
            Not Before: Aug 28 10:34:04 2019 GMT
            Not After : Aug 27 10:34:04 2020 GMT
        Subject: OU=realm1, CN=cornelius/emailAddress=user@localhost.localdomain
        Subject Public Key Info:
            Public Key Algorithm: rsaEncryption
                RSA Public-Key: (2048 bit)
                Modulus:
                    00:c4:48:65:b9:c1:c4:5f:0c:d5:e5:be:96:af:ed:
                    a7:0d:b0:84:4a:75:a1:30:ba:f8:4a:a7:79:08:a7:
                    f3:0e:b6:fd:d3:eb:fa:ca:04:4a:81:2b:2e:6c:34:
                    5c:77:5f:29:2f:78:c9:80:5a:cf:81:15:e9:b5:90:
                    ad:22:4a:90:0f:97:b2:7a:9d:85:c3:ce:8a:63:0c:
                    ad:29:75:65:fd:e0:17:c6:3f:6c:dd:59:f5:ed:fb:
                    da:8c:70:ce:96:97:f3:df:f6:94:ef:fb:e8:6b:14:
                    47:f8:a4:c2:99:47:12:0c:63:c0:2f:e4:c3:ae:81:
                    44:71:fd:0d:a2:c1:c6:3a:0e:ee:d9:e9:b5:59:c9:
                    07:84:e8:6a:8e:73:7b:c2:d8:2a:b7:8a:2b:6b:fa:
                    6f:1e:f4:d5:e1:c9:b8:f1:ce:84:47:2d:13:30:b0:
                    58:c2:1e:d5:92:37:6d:d7:39:f4:b5:24:c1:c2:33:
                    d7:b7:1d:59:58:23:cd:01:9f:be:0e:a4:21:6a:a6:
                    11:6a:d8:f6:43:d5:37:38:06:d8:0c:da:9b:a1:fc:
                    8c:15:6b:2c:1b:3a:31:e3:d5:65:a3:96:01:f3:5f:
                    b3:f7:86:44:be:0d:5b:b7:85:10:b9:26:78:32:88:
                    3d:25:d3:4a:ea:bc:c1:61:62:9e:b9:b6:1d:11:b6:
                    9c:b9
                Exponent: 65537 (0x10001)
        X509v3 extensions:
            X509v3 Key Usage: 
                Digital Signature, Key Encipherment
            X509v3 Basic Constraints: 
                CA:FALSE
            Netscape Cert Type: 
                SSL Server
            Netscape Comment: 
                OpenSSL Generated Server Certificate
            X509v3 Subject Key Identifier: 
                CA:48:C2:1B:08:39:16:9C:7B:1F:BA:1A:B2:E8:E6:16:A0:1C:E5:53
            X509v3 Authority Key Identifier: 
                keyid:F4:A7:C0:CC:91:46:AF:64:F3:91:F2:27:F8:C8:B2:6F:8A:87:32:73
                DirName:/C=DE/ST=Hessen/O=privacyidea/CN=CA001
                serial:FB:C8:EB:AC:83:CD:12:07

            X509v3 Extended Key Usage: 
                TLS Web Server Authentication
    Signature Algorithm: sha256WithRSAEncryption
         5f:db:4d:a1:d7:c0:be:2d:b5:80:48:41:a0:3d:29:58:23:ea:
         f6:8e:cb:9d:a7:db:5f:5f:6d:5c:0c:9b:e8:f9:5b:1c:21:f8:
         86:5a:05:52:59:3d:1e:13:a2:fe:07:db:1a:fc:f0:f0:92:c5:
         83:0b:63:e2:5f:36:17:26:bb:e7:81:4d:82:bb:ff:3d:d0:70:
         ad:13:a0:6a:f2:23:e3:46:4c:84:2a:0e:70:80:73:26:52:1f:
         81:ed:2e:0b:b7:ee:2a:44:14:ef:29:a7:f3:bb:da:d7:4c:b8:
         b7:d8:1c:ac:d0:f7:52:a1:2c:fc:ab:d1:2f:63:43:d3:db:33:
         d7:1a:24:d2:c9:29:e6:d0:1a:c1:54:3d:52:25:23:28:f4:57:
         0c:51:a3:2d:b2:1b:6c:b3:9a:3c:2c:06:a6:fe:ac:98:b5:43:
         3f:e1:75:9a:01:f6:e8:d4:f8:62:4a:42:36:94:97:4d:6b:8d:
         b0:4e:b0:c8:5b:e8:b0:cd:91:d5:36:30:d6:76:68:7f:88:f2:
         80:7f:60:73:24:aa:ed:d2:93:cd:26:f3:72:dc:f4:47:72:34:
         53:4c:85:5c:f3:f1:a0:6a:19:e2:eb:94:57:21:eb:f4:d6:e7:
         5e:c7:aa:c5:bb:e7:d0:e7:05:9d:c9:ad:7a:37:a5:6c:14:18:
         fd:26:3d:b4
-----BEGIN CERTIFICATE-----
MIIEIjCCAwqgAwIBAgIEEAAA4DANBgkqhkiG9w0BAQsFADBEMQswCQYDVQQGEwJE
RTEPMA0GA1UECAwGSGVzc2VuMRQwEgYDVQQKDAtwcml2YWN5aWRlYTEOMAwGA1UE
AwwFQ0EwMDEwHhcNMTkwODI4MTAzNDA0WhcNMjAwODI3MTAzNDA0WjBQMQ8wDQYD
VQQLDAZyZWFsbTExEjAQBgNVBAMMCWNvcm5lbGl1czEpMCcGCSqGSIb3DQEJARYa
dXNlckBsb2NhbGhvc3QubG9jYWxkb21haW4wggEiMA0GCSqGSIb3DQEBAQUAA4IB
DwAwggEKAoIBAQDESGW5wcRfDNXlvpav7acNsIRKdaEwuvhKp3kIp/MOtv3T6/rK
BEqBKy5sNFx3XykveMmAWs+BFem1kK0iSpAPl7J6nYXDzopjDK0pdWX94BfGP2zd
WfXt+9qMcM6Wl/Pf9pTv++hrFEf4pMKZRxIMY8Av5MOugURx/Q2iwcY6Du7Z6bVZ
yQeE6GqOc3vC2Cq3iitr+m8e9NXhybjxzoRHLRMwsFjCHtWSN23XOfS1JMHCM9e3
HVlYI80Bn74OpCFqphFq2PZD1Tc4BtgM2puh/IwVaywbOjHj1WWjlgHzX7P3hkS+
DVu3hRC5JngyiD0l00rqvMFhYp65th0Rtpy5AgMBAAGjggEOMIIBCjALBgNVHQ8E
BAMCBaAwCQYDVR0TBAIwADARBglghkgBhvhCAQEEBAMCBkAwMwYJYIZIAYb4QgEN
BCYWJE9wZW5TU0wgR2VuZXJhdGVkIFNlcnZlciBDZXJ0aWZpY2F0ZTAdBgNVHQ4E
FgQUykjCGwg5Fpx7H7oasujmFqAc5VMwdAYDVR0jBG0wa4AU9KfAzJFGr2TzkfIn
+Miyb4qHMnOhSKRGMEQxCzAJBgNVBAYTAkRFMQ8wDQYDVQQIDAZIZXNzZW4xFDAS
BgNVBAoMC3ByaXZhY3lpZGVhMQ4wDAYDVQQDDAVDQTAwMYIJAPvI66yDzRIHMBMG
A1UdJQQMMAoGCCsGAQUFBwMBMA0GCSqGSIb3DQEBCwUAA4IBAQBf202h18C+LbWA
SEGgPSlYI+r2jsudp9tfX21cDJvo+VscIfiGWgVSWT0eE6L+B9sa/PDwksWDC2Pi
XzYXJrvngU2Cu/890HCtE6Bq8iPjRkyEKg5wgHMmUh+B7S4Lt+4qRBTvKafzu9rX
TLi32Bys0PdSoSz8q9EvY0PT2zPXGiTSySnm0BrBVD1SJSMo9FcMUaMtshtss5o8
LAam/qyYtUM/4XWaAfbo1PhiSkI2lJdNa42wTrDIW+iwzZHVNjDWdmh/iPKAf2Bz
JKrt0pPNJvNy3PRHcjRTTIVc8/Ggahni65RXIev01udex6rFu+fQ5wWdya16N6Vs
FBj9Jj20
-----END CERTIFICATE-----
