Certificate:
    Data:
        Version: 3 (0x2)
        Serial Number: 268435671 (0x100000d7)
        Signature Algorithm: sha256WithRSAEncryption
        Issuer: C=DE, ST=Hessen, O=privacyidea, CN=CA001
        Validity
            Not Before: Sep  3 22:03:39 2019 GMT
            Not After : Sep  2 22:03:39 2020 GMT
        Subject: OU=realm1, CN=cornelius/emailAddress=user@localhost.localdomain
        Subject Public Key Info:
            Public Key Algorithm: rsaEncryption
                RSA Public-Key: (2048 bit)
                Modulus:
                    00:d4:f5:71:ec:c5:16:32:7f:e8:e0:64:40:d6:85:
                    c0:47:a6:aa:e1:ca:b9:d3:4c:9a:62:f8:40:e4:0d:
                    b5:06:ae:7d:be:f9:b9:8b:95:84:32:df:32:8a:67:
                    93:46:d6:32:fe:d0:92:a9:f0:1a:89:fe:d9:db:75:
                    a4:9c:e9:c6:87:7f:fe:ac:9f:34:de:e7:16:0f:b0:
                    e2:94:7b:fd:0c:75:3f:f0:77:6f:62:57:2d:6d:4e:
                    2c:48:e2:28:c0:8a:a8:fc:1c:7f:b9:80:47:c8:7f:
                    07:81:5a:50:c4:37:51:1b:91:61:aa:54:52:f9:4d:
                    a2:76:1f:d3:b9:da:9f:7a:94:68:8f:88:f2:eb:0f:
                    09:bd:0c:c8:15:1e:5f:9c:d3:2f:a1:e3:9c:9c:0e:
                    74:ae:cf:05:94:34:fc:01:0b:76:90:17:e3:54:b9:
                    5e:44:85:98:c6:11:a2:fe:10:6c:8c:ee:65:e0:7a:
                    04:6a:60:13:8f:e2:ff:a2:39:b3:c4:40:09:c1:ff:
                    d1:f0:d1:09:a4:e7:70:52:20:2a:6d:bb:82:e6:29:
                    91:95:8a:86:62:12:40:4c:bd:44:38:31:84:6e:70:
                    06:08:35:13:ec:31:94:5d:f2:21:7c:2b:ea:22:36:
                    b0:a0:e1:73:0a:30:ba:fb:e8:41:73:06:7a:2c:04:
                    81:a5
                Exponent: 65537 (0x10001)
        X509v3 extensions:
            X509v3 Key Usage: 
                Digital Signature, Key Encipherment
            X509v3 Basic Constraints: 
                CA:FALSE
            Netscape Cert Type: 
                SSL Server
            Netscape Comment: 
                OpenSSL Generated Server Certificate
            X509v3 Subject Key Identifier: 
                86:9B:8D:45:D3:C4:54:A3:65:26:36:83:5A:72:5B:8A:96:2D:CD:51
            X509v3 Authority Key Identifier: 
                keyid:F4:A7:C0:CC:91:46:AF:64:F3:91:F2:27:F8:C8:B2:6F:8A:87:32:73
                DirName:/C=DE/ST=Hessen/O=privacyidea/CN=CA001
                serial:FB:C8:EB:AC:83:CD:12:07

            X509v3 Extended Key Usage: 
                TLS Web Server Authentication
    Signature Algorithm: sha256WithRSAEncryption
         50:47:e7:63:41:f3:e7:67:00:fa:a7:a4:29:10:8e:66:4f:5b:
         7d:c0:4f:18:45:3a:7d:08:e7:39:3a:75:aa:e3:65:d1:52:3f:
         67:0c:54:5b:f4:9e:00:2a:27:4a:3f:e0:1d:0f:61:e5:c3:9c:
         0b:8b:fb:df:9c:d0:bf:a1:9f:8d:51:a7:c3:69:af:cc:60:6a:
         39:e5:da:16:8c:e8:74:48:43:de:d3:a4:de:1e:ee:40:29:af:
         71:70:7f:6b:b6:09:b2:0b:a5:b8:f5:5e:1c:eb:7a:27:ce:ae:
         e7:81:0e:23:a9:f1:b9:e1:cd:43:aa:2f:f1:1c:ce:e2:a0:f2:
         0d:ea:10:50:84:41:1d:52:16:a9:6a:b8:f2:fe:67:6d:c7:71:
         a9:c4:01:81:9b:aa:17:28:72:5b:e8:22:f3:fe:70:13:ef:6d:
         ee:54:49:d9:5a:68:1f:18:f6:34:3e:54:16:1b:68:9e:65:a2:
         c3:b6:c6:ad:db:f4:eb:7b:b2:aa:dc:8d:d2:58:c0:02:c7:83:
         bc:98:66:8d:6c:82:86:93:4a:d1:9b:4f:16:81:b2:92:5a:45:
         8a:9a:ca:c5:83:d1:ec:22:b6:1e:91:2d:b7:b9:f8:e3:53:32:
         db:66:4b:a7:d7:42:c7:92:df:08:a2:f0:c6:fc:28:12:e3:d9:
         00:bc:79:29
-----BEGIN CERTIFICATE-----
MIIEIjCCAwqgAwIBAgIEEAAA1zANBgkqhkiG9w0BAQsFADBEMQswCQYDVQQGEwJE
RTEPMA0GA1UECAwGSGVzc2VuMRQwEgYDVQQKDAtwcml2YWN5aWRlYTEOMAwGA1UE
AwwFQ0EwMDEwHhcNMTkwOTAzMjIwMzM5WhcNMjAwOTAyMjIwMzM5WjBQMQ8wDQYD
VQQLDAZyZWFsbTExEjAQBgNVBAMMCWNvcm5lbGl1czEpMCcGCSqGSIb3DQEJARYa
dXNlckBsb2NhbGhvc3QubG9jYWxkb21haW4wggEiMA0GCSqGSIb3DQEBAQUAA4IB
DwAwggEKAoIBAQDU9XHsxRYyf+jgZEDWhcBHpqrhyrnTTJpi+EDkDbUGrn2++bmL
lYQy3zKKZ5NG1jL+0JKp8BqJ/tnbdaSc6caHf/6snzTe5xYPsOKUe/0MdT/wd29i
Vy1tTixI4ijAiqj8HH+5gEfIfweBWlDEN1EbkWGqVFL5TaJ2H9O52p96lGiPiPLr
Dwm9DMgVHl+c0y+h45ycDnSuzwWUNPwBC3aQF+NUuV5EhZjGEaL+EGyM7mXgegRq
YBOP4v+iObPEQAnB/9Hw0Qmk53BSICptu4LmKZGVioZiEkBMvUQ4MYRucAYINRPs
MZRd8iF8K+oiNrCg4XMKMLr76EFzBnosBIGlAgMBAAGjggEOMIIBCjALBgNVHQ8E
BAMCBaAwCQYDVR0TBAIwADARBglghkgBhvhCAQEEBAMCBkAwMwYJYIZIAYb4QgEN
BCYWJE9wZW5TU0wgR2VuZXJhdGVkIFNlcnZlciBDZXJ0aWZpY2F0ZTAdBgNVHQ4E
FgQUhpuNRdPEVKNlJjaDWnJbipYtzVEwdAYDVR0jBG0wa4AU9KfAzJFGr2TzkfIn
+Miyb4qHMnOhSKRGMEQxCzAJBgNVBAYTAkRFMQ8wDQYDVQQIDAZIZXNzZW4xFDAS
BgNVBAoMC3ByaXZhY3lpZGVhMQ4wDAYDVQQDDAVDQTAwMYIJAPvI66yDzRIHMBMG
A1UdJQQMMAoGCCsGAQUFBwMBMA0GCSqGSIb3DQEBCwUAA4IBAQBQR+djQfPnZwD6
p6QpEI5mT1t9wE8YRTp9COc5OnWq42XRUj9nDFRb9J4AKidKP+AdD2Hlw5wLi/vf
nNC/oZ+NUafDaa/MYGo55doWjOh0SEPe06TeHu5AKa9xcH9rtgmyC6W49V4c63on
zq7ngQ4jqfG54c1Dqi/xHM7ioPIN6hBQhEEdUhaparjy/mdtx3GpxAGBm6oXKHJb
6CLz/nAT723uVEnZWmgfGPY0PlQWG2ieZaLDtsat2/Tre7Kq3I3SWMACx4O8mGaN
bIKGk0rRm08WgbKSWkWKmsrFg9HsIrYekS23ufjjUzLbZkun10LHkt8IovDG/CgS
49kAvHkp
-----END CERTIFICATE-----
