Certificate:
    Data:
        Version: 3 (0x2)
        Serial Number: 268435667 (0x100000d3)
        Signature Algorithm: sha256WithRSAEncryption
        Issuer: C=DE, ST=Hessen, O=privacyidea, CN=CA001
        Validity
            Not Before: Sep  3 22:01:26 2019 GMT
            Not After : Sep  2 22:01:26 2020 GMT
        Subject: C=DE, ST=Hessen, O=privacyidea, CN=usercert
        Subject Public Key Info:
            Public Key Algorithm: rsaEncryption
                RSA Public-Key: (2048 bit)
                Modulus:
                    00:dc:2f:d1:5f:29:97:d4:7c:c3:53:c8:30:bd:4b:
                    67:70:2c:24:6b:b8:5e:eb:21:7a:48:12:56:7c:81:
                    5c:48:75:b6:68:eb:f6:f2:98:4e:50:51:d1:7f:6c:
                    73:f3:0a:a7:ae:be:48:5e:e5:d6:e1:d9:2a:7c:32:
                    6e:4e:fd:08:f6:5a:54:49:23:73:c3:b9:07:18:d1:
                    ef:b3:ac:f8:8a:dc:94:96:a4:90:3a:8e:74:df:e6:
                    0d:37:1b:bd:5b:b7:25:1a:56:39:da:6f:91:aa:5e:
                    1c:74:f3:f9:7c:14:01:83:12:65:76:c7:bb:fe:36:
                    5b:95:e9:72:65:83:ed:3e:98:30:71:fa:87:dd:a3:
                    36:5a:30:03:2e:26:e0:61:d1:bf:02:3f:b6:06:1f:
                    4a:89:28:1c:5c:a2:ff:4e:be:94:e6:8c:e0:da:82:
                    f1:9d:29:32:48:30:73:b4:04:f6:42:1e:be:f7:e2:
                    32:32:27:3c:9d:89:2f:70:3e:85:9a:6f:5c:c5:09:
                    c0:8c:32:2f:72:22:c9:d2:95:1f:b6:ac:72:60:72:
                    b7:82:4d:6b:ce:5b:e3:00:d0:d2:2f:58:c6:e0:10:
                    e5:51:ca:4d:3b:2e:e6:7e:ab:84:d6:56:f1:93:35:
                    a0:93:64:26:81:75:2f:91:b5:16:06:38:0b:db:cc:
                    2d:07
                Exponent: 65537 (0x10001)
        X509v3 extensions:
            X509v3 Key Usage: 
                Digital Signature, Key Encipherment
            X509v3 Basic Constraints: 
                CA:FALSE
            Netscape Cert Type: 
                SSL Server
            Netscape Comment: 
                OpenSSL Generated Server Certificate
            X509v3 Subject Key Identifier: 
                FC:14:D1:F0:4B:8D:00:90:F2:F5:B8:71:9E:4E:97:C3:92:54:AD:0B
            X509v3 Authority Key Identifier: 
                keyid:F4:A7:C0:CC:91:46:AF:64:F3:91:F2:27:F8:C8:B2:6F:8A:87:32:73
                DirName:/C=DE/ST=Hessen/O=privacyidea/CN=CA001
                serial:FB:C8:EB:AC:83:CD:12:07

            X509v3 Extended Key Usage: 
                TLS Web Server Authentication
    Signature Algorithm: sha256WithRSAEncryption
         ae:fc:a1:c9:55:34:11:80:b8:71:98:22:86:a9:c6:23:10:01:
         e3:a3:ff:c5:eb:d9:6d:5d:f3:b9:b1:b8:a7:8f:a7:d7:dc:69:
         08:c1:2c:f7:e1:fd:6b:26:ff:f2:61:75:ad:92:ba:02:b9:a4:
         4f:1a:33:bf:95:8b:35:d7:1d:11:91:25:93:1d:d5:99:5b:a9:
         8c:33:fa:e3:68:c7:e5:7b:09:b9:ad:dc:bc:1c:ae:78:06:f2:
         56:d7:91:19:a1:33:52:97:45:9e:6b:3a:31:75:b8:b0:c3:ad:
         43:69:b9:9c:7f:89:30:fb:8d:fe:db:b4:95:95:e5:34:b8:8d:
         09:da:ac:19:8a:0f:51:09:6e:6b:2c:72:72:11:2f:79:92:43:
         b3:85:1d:19:f1:18:06:73:3e:35:f2:2f:f5:77:7a:85:f0:0a:
         13:f7:64:2b:1c:5b:3b:4e:f1:23:f7:26:a6:39:59:a0:30:c8:
         2a:01:fd:b1:fe:63:7d:5d:3c:a5:f8:aa:19:7c:cf:e7:39:cd:
         b9:fa:a4:33:0b:19:71:91:4e:a2:95:7a:94:e5:63:b4:77:96:
         42:fe:1d:ac:c8:60:45:6d:29:6d:07:7b:cb:36:5e:06:fb:0b:
         3b:60:d2:b3:e7:a4:0f:2e:81:6e:d1:85:84:52:1e:78:4a:4b:
         2f:10:91:ec
-----BEGIN CERTIFICATE-----
MIIEGTCCAwGgAwIBAgIEEAAA0zANBgkqhkiG9w0BAQsFADBEMQswCQYDVQQGEwJE
RTEPMA0GA1UECAwGSGVzc2VuMRQwEgYDVQQKDAtwcml2YWN5aWRlYTEOMAwGA1UE
AwwFQ0EwMDEwHhcNMTkwOTAzMjIwMTI2WhcNMjAwOTAyMjIwMTI2WjBHMQswCQYD
VQQGEwJERTEPMA0GA1UECAwGSGVzc2VuMRQwEgYDVQQKDAtwcml2YWN5aWRlYTER
MA8GA1UEAwwIdXNlcmNlcnQwggEiMA0GCSqGSIb3DQEBAQUAA4IBDwAwggEKAoIB
AQDcL9FfKZfUfMNTyDC9S2dwLCRruF7rIXpIElZ8gVxIdbZo6/bymE5QUdF/bHPz
Cqeuvkhe5dbh2Sp8Mm5O/Qj2WlRJI3PDuQcY0e+zrPiK3JSWpJA6jnTf5g03G71b
tyUaVjnab5GqXhx08/l8FAGDEmV2x7v+NluV6XJlg+0+mDBx+ofdozZaMAMuJuBh
0b8CP7YGH0qJKBxcov9OvpTmjODagvGdKTJIMHO0BPZCHr734jIyJzydiS9wPoWa
b1zFCcCMMi9yIsnSlR+2rHJgcreCTWvOW+MA0NIvWMbgEOVRyk07LuZ+q4TWVvGT
NaCTZCaBdS+RtRYGOAvbzC0HAgMBAAGjggEOMIIBCjALBgNVHQ8EBAMCBaAwCQYD
VR0TBAIwADARBglghkgBhvhCAQEEBAMCBkAwMwYJYIZIAYb4QgENBCYWJE9wZW5T
U0wgR2VuZXJhdGVkIFNlcnZlciBDZXJ0aWZpY2F0ZTAdBgNVHQ4EFgQU/BTR8EuN
AJDy9bhxnk6Xw5JUrQswdAYDVR0jBG0wa4AU9KfAzJFGr2TzkfIn+Miyb4qHMnOh
SKRGMEQxCzAJBgNVBAYTAkRFMQ8wDQYDVQQIDAZIZXNzZW4xFDASBgNVBAoMC3By
aXZhY3lpZGVhMQ4wDAYDVQQDDAVDQTAwMYIJAPvI66yDzRIHMBMGA1UdJQQMMAoG
CCsGAQUFBwMBMA0GCSqGSIb3DQEBCwUAA4IBAQCu/KHJVTQRgLhxmCKGqcYjEAHj
o//F69ltXfO5sbinj6fX3GkIwSz34f1rJv/yYXWtkroCuaRPGjO/lYs11x0RkSWT
HdWZW6mMM/rjaMflewm5rdy8HK54BvJW15EZoTNSl0Weazoxdbiww61Dabmcf4kw
+43+27SVleU0uI0J2qwZig9RCW5rLHJyES95kkOzhR0Z8RgGcz418i/1d3qF8AoT
92QrHFs7TvEj9yamOVmgMMgqAf2x/mN9XTyl+KoZfM/nOc25+qQzCxlxkU6ilXqU
5WO0d5ZC/h2syGBFbSltB3vLNl4G+ws7YNKz56QPLoFu0YWEUh54SksvEJHs
-----END CERTIFICATE-----
